(dp1
I0
I112
sI1
I112
sI2
I112
sI3
I112
sI4
I112
sI5
I112
sI6
I112
sI7
I112
sI8
I112
sI9
I112
sI10
I112
sI11
I90
sI12
I90
sI13
I90
sI14
I90
sI15
I90
sI16
I90
sI17
I90
sI18
I90
sI19
I90
sI20
I90
sI21
I90
sI22
I90
sI23
I90
sI24
I90
sI25
I90
sI26
I90
sI27
I90
sI28
I90
sI29
I90
sI30
I90
sI31
I90
sI32
I90
sI33
I90
sI34
I90
sI35
I90
sI36
I90
sI37
I90
sI38
I90
sI39
I90
sI40
I90
sI41
I90
sI42
I90
sI43
I90
sI44
I90
sI45
I90
sI46
I90
sI47
I90
sI48
I90
sI49
I90
sI50
I90
sI51
I90
sI52
I90
sI53
I90
sI54
I90
sI55
I90
sI56
I90
sI57
I90
sI58
I90
sI59
I90
sI60
I90
sI61
I90
sI62
I90
sI63
I90
sI64
I90
sI65
I90
sI66
I90
sI67
I90
sI68
I90
sI69
I90
sI70
I90
sI71
I90
sI72
I90
sI73
I90
sI74
I90
sI75
I90
sI76
I90
sI77
I90
sI78
I90
sI79
I90
sI80
I90
sI81
I90
sI82
I90
sI83
I90
sI84
I90
sI85
I90
sI86
I90
sI87
I90
sI88
I90
sI89
I90
sI91
I90
sI92
I90
sI93
I90
sI94
I90
sI95
I90
sI96
I90
sI97
I90
sI98
I90
sI99
I90
sI100
I90
sI101
I90
sI102
I112
sI103
I112
sI104
I112
sI105
I112
sI106
I112
sI107
I112
sI108
I112
sI109
I112
sI110
I112
sI111
I112
sI113
I112
sI114
I112
sI115
I112
sI116
I112
sI117
I112
sI118
I112
sI119
I112
sI120
I112
sI121
I112
sI122
I112
sI123
I112
sI124
I112
sI125
I112
sI126
I112
sI127
I112
sI128
I112
sI129
I112
sI130
I112
sI131
I112
sI132
I112
sI133
I112
sI134
I112
sI135
I112
sI136
I112
sI137
I112
sI138
I112
sI139
I112
sI140
I112
sI141
I112
sI142
I112
sI143
I112
sI144
I112
sI145
I112
sI146
I112
sI147
I112
sI148
I112
sI149
I112
sI150
I112
sI151
I112
sI152
I112
sI153
I112
sI154
I112
sI155
I112
sI156
I112
sI157
I112
sI158
I112
sI159
I112
sI160
I112
sI161
I112
sI162
I112
sI163
I112
sI164
I112
sI165
I112
sI166
I112
sI167
I112
sI168
I112
sI169
I112
sI170
I112
sI171
I112
sI172
I112
sI173
I112
sI174
I112
sI175
I112
sI176
I112
sI177
I112
sI178
I112
sI179
I112
sI180
I355
sI181
I355
sI182
I355
sI183
I355
sI184
I355
sI185
I355
sI186
I355
sI187
I355
sI188
I355
sI189
I355
sI190
I355
sI191
I355
sI192
I355
sI193
I355
sI194
I355
sI195
I355
sI196
I355
sI197
I355
sI198
I355
sI199
I355
sI200
I355
sI201
I355
sI202
I355
sI203
I355
sI204
I355
sI205
I355
sI206
I90
sI207
I387
sI208
I90
sI209
I90
sI210
I90
sI211
I90
sI212
I90
sI213
I393
sI214
I90
sI215
I395
sI216
I90
sI217
I90
sI218
I90
sI219
I90
sI220
I90
sI221
I90
sI222
I90
sI223
I90
sI224
I90
sI225
I90
sI226
I90
sI227
I90
sI228
I90
sI229
I90
sI230
I90
sI231
I90
sI232
I90
sI233
I90
sI234
I90
sI235
I90
sI236
I90
sI237
I90
sI238
I90
sI239
I90
sI240
I90
sI241
I90
sI242
I90
sI243
I90
sI244
I90
sI245
I90
sI246
I90
sI247
I90
sI248
I90
sI249
I90
sI250
I90
sI251
I90
sI252
I90
sI253
I90
sI254
I90
sI255
I90
sI256
I90
sI257
I90
sI258
I90
sI259
I90
sI260
I290
sI261
I290
sI262
I290
sI263
I290
sI264
I290
sI265
I290
sI266
I290
sI267
I290
sI268
I290
sI269
I290
sI270
I290
sI271
I290
sI272
I290
sI273
I290
sI274
I290
sI275
I290
sI276
I290
sI277
I290
sI278
I290
sI279
I290
sI280
I290
sI281
I290
sI282
I290
sI283
I290
sI284
I290
sI285
I290
sI286
I290
sI287
I290
sI288
I290
sI289
I290
sI291
I290
sI292
I290
sI293
I290
sI294
I290
sI295
I290
sI296
I301
sI297
I301
sI298
I301
sI299
I301
sI300
I301
sI302
I301
sI303
I301
sI304
I301
sI305
I301
sI306
I310
sI307
I310
sI308
I310
sI309
I310
sI311
I310
sI312
I310
sI313
I315
sI314
I315
sI316
I315
sI317
I315
sI318
I315
sI319
I315
sI320
I315
sI321
I315
sI322
I315
sI323
I315
sI324
I315
sI325
I315
sI326
I315
sI327
I315
sI328
I340
sI329
I340
sI330
I340
sI331
I340
sI332
I340
sI333
I340
sI334
I340
sI335
I340
sI336
I340
sI337
I340
sI338
I340
sI339
I340
sI341
I340
sI342
I340
sI343
I340
sI344
I340
sI345
I340
sI346
I340
sI347
I340
sI348
I355
sI349
I355
sI350
I355
sI351
I355
sI352
I355
sI353
I355
sI354
I355
sI356
I355
sI357
I355
sI358
I355
sI359
I355
sI361
I360
sI362
I360
sI363
I360
sI364
I360
sI365
I360
sI366
I360
sI367
I360
sI368
I360
sI369
I360
sI370
I360
sI371
I360
sI372
I360
sI373
I360
sI374
I387
sI375
I387
sI376
I387
sI377
I387
sI378
I387
sI379
I387
sI380
I387
sI381
I387
sI382
I387
sI383
I387
sI384
I387
sI385
I387
sI386
I387
sI388
I387
sI389
I387
sI390
I393
sI391
I393
sI392
I393
sI394
I393
sI396
I395
sI397
I395
sI398
I395
sI399
I395
sI400
I395
sI401
I395
sI402
I395
sI403
I395
sI404
I395
sI405
I395
sI406
I395
sI407
I395
sI408
I395
sI409
I395
sI410
I590
sI411
I591
sI412
I592
sI413
I593
sI414
I594
sI415
I595
sI416
I596
sI417
I597
sI418
I598
sI419
I599
sI420
I600
sI421
I601
sI422
I602
sI423
I603
sI424
I604
sI425
I605
sI426
I606
sI427
I607
sI428
I608
sI429
I609
sI430
I610
sI431
I611
sI432
I612
sI433
I613
sI434
I614
sI435
I615
sI436
I450
sI437
I450
sI438
I450
sI439
I450
sI440
I450
sI441
I450
sI442
I450
sI443
I450
sI444
I450
sI445
I450
sI446
I450
sI447
I450
sI448
I450
sI449
I450
sI451
I450
sI452
I450
sI453
I450
sI454
I456
sI455
I456
sI457
I456
sI458
I459
sI461
I460
sI462
I460
sI463
I460
sI464
I460
sI465
I460
sI466
I460
sI467
I460
sI468
I460
sI469
I460
sI470
I460
sI471
I460
sI472
I460
sI473
I485
sI474
I485
sI475
I485
sI476
I485
sI477
I485
sI478
I485
sI479
I485
sI480
I485
sI481
I485
sI482
I485
sI483
I485
sI484
I485
sI486
I485
sI488
I487
sI489
I487
sI490
I492
sI491
I492
sI493
I492
sI494
I492
sI495
I496
sI498
I497
sI499
I497
sI500
I497
sI501
I497
sI502
I497
sI503
I508
sI504
I508
sI505
I508
sI506
I508
sI507
I508
sI509
I508
sI510
I508
sI511
I508
sI512
I508
sI513
I508
sI514
I508
sI515
I508
sI516
I508
sI517
I525
sI518
I525
sI519
I525
sI520
I525
sI521
I525
sI522
I525
sI523
I525
sI524
I525
sI527
I528
sI529
I528
sI530
I528
sI531
I532
sI533
I532
sI534
I532
sI535
I532
sI536
I532
sI537
I360
sI538
I360
sI539
I360
sI540
I541
sI542
I541
sI543
I541
sI544
I541
sI545
I541
sI546
I550
sI547
I550
sI548
I550
sI549
I550
sI551
I550
sI552
I553
sI554
I553
sI555
I556
sI558
I557
sI559
I560
sI561
I562
sI564
I563
sI565
I563
sI566
I563
sI567
I570
sI568
I570
sI569
I570
sI571
I570
sI572
I570
sI573
I570
sI574
I570
sI575
I570
sI576
I570
sI577
I570
sI578
I585
sI579
I585
sI580
I585
sI581
I585
sI582
I585
sI583
I585
sI584
I585
sI622
I621
sI623
I621
sI624
I625
sI626
I625
sI627
I625
sI628
I625
sI629
I625
sI630
I625
sI631
I625
sI632
I625
sI633
I625
sI634
I625
sI635
I815
sI636
I456
sI637
I817
sI638
I647
sI639
I647
sI640
I647
sI641
I647
sI642
I647
sI643
I647
sI644
I647
sI645
I647
sI646
I647
sI648
I647
sI649
I647
sI650
I647
sI651
I647
sI652
I647
sI653
I647
sI654
I647
sI655
I647
sI656
I665
sI657
I665
sI658
I665
sI659
I665
sI660
I665
sI661
I665
sI662
I665
sI663
I665
sI664
I665
sI667
I666
sI668
I669
sI670
I669
sI671
I669
sI672
I669
sI673
I676
sI674
I676
sI675
I676
sI677
I676
sI678
I676
sI679
I676
sI680
I682
sI681
I682
sI683
I682
sI685
I684
sI687
I686
sI688
I689
sI690
I689
sI691
I689
sI692
I689
sI693
I689
sI694
I689
sI695
I689
sI696
I689
sI697
I689
sI698
I689
sI699
I689
sI700
I525
sI701
I525
sI702
I525
sI703
I525
sI704
I525
sI705
I525
sI706
I715
sI707
I715
sI708
I715
sI709
I715
sI710
I715
sI711
I715
sI712
I715
sI713
I715
sI714
I715
sI716
I715
sI717
I715
sI718
I715
sI719
I541
sI720
I725
sI721
I725
sI722
I725
sI723
I725
sI724
I725
sI726
I725
sI727
I728
sI729
I728
sI730
I728
sI731
I732
sI733
I732
sI734
I732
sI735
I732
sI736
I732
sI737
I732
sI738
I732
sI739
I732
sI740
I560
sI741
I562
sI742
I562
sI743
I563
sI744
I563
sI745
I563
sI746
I563
sI747
I754
sI748
I754
sI749
I754
sI750
I754
sI751
I754
sI752
I754
sI753
I754
sI755
I754
sI756
I754
sI757
I759
sI758
I759
sI789
I788
sI790
I791
sI804
I803
sI806
I805
sI807
I805
sI808
I809
sI810
I809
sI811
I812
sI813
I812
sI814
I815
sI824
I825
sI827
I828
sI831
I832
sI843
I842
sI844
I842
sI845
I842
sI846
I849
sI847
I849
sI848
I849
sI850
I849
sI851
I849
sI852
I855
sI853
I855
sI854
I855
sI860
I859
sI861
I859
sI862
I859
sI863
I859
sI864
I868
sI865
I868
sI866
I868
sI867
I868
sI869
I868
sI870
I868
sI871
I868
sI872
I868
sI873
I868
sI874
I868
sI875
I868
sI876
I868
sI877
I868
sI878
I868
sI879
I868
sI880
I890
sI881
I890
sI882
I890
sI883
I890
sI884
I890
sI885
I890
sI886
I890
sI887
I890
sI888
I890
sI889
I890
sI891
I890
sI892
I890
sI893
I894
sI895
I894
sI896
I894
sI897
I894
sI898
I894
sI899
I894
sI900
I901
sI902
I901
sI903
I905
sI904
I905
sI906
I905
sI907
I905
sI908
I905
sI909
I911
sI910
I911
sI912
I911
sI913
I911
sI914
I911
sI915
I917
sI916
I917
sI918
I917
sI919
I920
sI921
I920
sI922
I920
sI923
I920
sI924
I920
sI925
I920
sI926
I920
sI927
I1108
sI928
I933
sI929
I933
sI930
I933
sI931
I933
sI932
I933
sI960
I961
sI962
I961
sI963
I965
sI964
I965
sI966
I965
sI967
I965
sI968
I965
sI969
I965
sI970
I965
sI971
I791
sI972
I792
sI973
I978
sI974
I978
sI975
I978
sI976
I978
sI977
I978
sI983
I982
sI984
I985
sI986
I985
sI987
I988
sI991
I990
sI993
I994
sI1006
I1005
sI1007
I1005
sI1008
I1005
sI1009
I1005
sI1010
I1014
sI1011
I1014
sI1012
I1014
sI1013
I1014
sI1016
I1015
sI1017
I1015
sI1018
I1019
sI1020
I1019
sI1021
I1019
sI1022
I1019
sI1023
I1025
sI1024
I1025
sI1026
I1025
sI1027
I1028
sI1030
I1029
sI1033
I1032
sI1034
I1035
sI1044
I1043
sI1045
I1043
sI1046
I1043
sI1047
I1043
sI1048
I1043
sI1049
I868
sI1050
I1231
sI1051
I1231
sI1052
I1231
sI1053
I1231
sI1054
I1231
sI1055
I1239
sI1056
I1239
sI1057
I1239
sI1058
I1239
sI1059
I1239
sI1060
I1240
sI1061
I1241
sI1062
I1241
sI1063
I1244
sI1064
I1244
sI1065
I1244
sI1066
I1246
sI1067
I1248
sI1068
I1248
sI1069
I1249
sI1070
I890
sI1071
I890
sI1072
I890
sI1073
I894
sI1074
I894
sI1075
I894
sI1076
I901
sI1077
I901
sI1078
I901
sI1079
I901
sI1080
I1084
sI1081
I1084
sI1082
I1084
sI1083
I1084
sI1085
I1084
sI1086
I1087
sI1088
I1087
sI1089
I1087
sI1090
I1092
sI1091
I1092
sI1093
I1092
sI1094
I1092
sI1095
I1092
sI1096
I1092
sI1097
I917
sI1098
I917
sI1099
I920
sI1100
I920
sI1101
I920
sI1102
I920
sI1103
I1284
sI1104
I1108
sI1105
I1108
sI1106
I1108
sI1107
I1108
sI1140
I1139
sI1141
I1139
sI1142
I1139
sI1143
I1139
sI1144
I965
sI1145
I965
sI1146
I965
sI1147
I1328
sI1148
I1328
sI1149
I1328
sI1150
I1328
sI1151
I1156
sI1152
I1156
sI1153
I1156
sI1154
I1156
sI1155
I1156
sI1162
I1161
sI1163
I1161
sI1164
I1161
sI1165
I1167
sI1166
I1167
sI1168
I1167
sI1169
I1170
sI1171
I1170
sI1184
I1183
sI1185
I1186
sI1187
I1188
sI1189
I1188
sI1190
I1188
sI1191
I1188
sI1192
I1188
sI1193
I1014
sI1194
I1014
sI1195
I1199
sI1196
I1199
sI1197
I1199
sI1198
I1199
sI1205
I1204
sI1206
I1204
sI1207
I1204
sI1208
I1211
sI1209
I1211
sI1210
I1211
sI1212
I1211
sI1213
I1214
sI1227
I1226
sI1228
I1226
sI1229
I1231
sI1230
I1231
sI1232
I1231
sI1233
I1231
sI1234
I1231
sI1235
I1239
sI1236
I1239
sI1237
I1239
sI1238
I1239
sI1242
I1241
sI1243
I1244
sI1245
I1244
sI1247
I1248
sI1250
I1249
sI1251
I1249
sI1252
I1249
sI1253
I1249
sI1254
I1249
sI1255
I1249
sI1256
I1439
sI1257
I1439
sI1258
I1439
sI1259
I1439
sI1260
I1439
sI1261
I1439
sI1262
I1439
sI1263
I1439
sI1264
I1084
sI1265
I1269
sI1266
I1269
sI1267
I1269
sI1268
I1269
sI1270
I1269
sI1272
I1271
sI1273
I1271
sI1274
I1271
sI1275
I1271
sI1276
I1271
sI1277
I1460
sI1278
I1460
sI1279
I1460
sI1280
I1284
sI1281
I1284
sI1282
I1284
sI1283
I1284
sI1285
I1284
sI1311
I1310
sI1312
I1313
sI1314
I1313
sI1315
I1316
sI1318
I1317
sI1323
I1322
sI1324
I1322
sI1325
I1322
sI1326
I1328
sI1327
I1328
sI1329
I1328
sI1330
I1328
sI1331
I1328
sI1332
I1335
sI1333
I1335
sI1334
I1335
sI1343
I1342
sI1344
I1345
sI1346
I1345
sI1347
I1348
sI1349
I1348
sI1352
I1351
sI1354
I1353
sI1356
I1357
sI1365
I1364
sI1366
I1364
sI1367
I1368
sI1370
I1369
sI1371
I1369
sI1372
I1369
sI1373
I1369
sI1374
I1377
sI1375
I1377
sI1376
I1377
sI1383
I1382
sI1384
I1382
sI1385
I1382
sI1386
I1388
sI1387
I1388
sI1407
I1406
sI1409
I1410
sI1412
I1411
sI1414
I1413
sI1415
I1416
sI1427
I1426
sI1428
I1426
sI1429
I1426
sI1430
I1426
sI1431
I1249
sI1432
I1613
sI1433
I1613
sI1434
I1613
sI1435
I1439
sI1436
I1439
sI1437
I1439
sI1438
I1439
sI1440
I1620
sI1441
I1621
sI1442
I1622
sI1443
I1624
sI1444
I1624
sI1445
I1624
sI1446
I1450
sI1447
I1450
sI1448
I1450
sI1449
I1450
sI1451
I1450
sI1452
I1453
sI1454
I1453
sI1455
I1453
sI1456
I1453
sI1457
I1460
sI1458
I1460
sI1459
I1460
sI1462
I1461
sI1464
I1463
sI1465
I1463
sI1466
I1467
sI1493
I1492
sI1494
I1495
sI1497
I1496
sI1498
I1496
sI1499
I1501
sI1500
I1501
sI1505
I1504
sI1506
I1504
sI1507
I1504
sI1508
I1510
sI1509
I1510
sI1511
I1510
sI1512
I1510
sI1513
I1514
sI1521
I1520
sI1522
I1520
sI1523
I1525
sI1524
I1525
sI1526
I1525
sI1528
I1529
sI1530
I1529
sI1533
I1532
sI1534
I1532
sI1535
I1532
sI1536
I1538
sI1537
I1538
sI1540
I1539
sI1541
I1542
sI1544
I1543
sI1545
I1543
sI1546
I1547
sI1549
I1548
sI1550
I1551
sI1552
I1551
sI1553
I1551
sI1554
I1555
sI1561
I1560
sI1562
I1560
sI1563
I1564
sI1595
I1594
sI1597
I1596
sI1605
I1604
sI1606
I1608
sI1607
I1608
sI1609
I1608
sI1610
I1608
sI1611
I1613
sI1612
I1613
sI1614
I1613
sI1615
I1613
sI1616
I1613
sI1617
I1613
sI1618
I1439
sI1619
I1439
sI1623
I1624
sI1625
I1624
sI1626
I1624
sI1627
I1628
sI1639
I1638
sI1640
I1638
sI1641
I1644
sI1642
I1644
sI1643
I1644
sI1677
I1676
sI1678
I1676
sI1679
I1682
sI1680
I1682
sI1681
I1682
sI1686
I1685
sI1687
I1685
sI1688
I1690
sI1689
I1690
sI1691
I1690
sI1692
I1690
sI1693
I1695
sI1694
I1695
sI1700
I1699
sI1701
I1699
sI1702
I1703
sI1704
I1703
sI1707
I1706
sI1708
I1706
sI1709
I1706
sI1710
I1529
sI1711
I1531
sI1712
I1532
sI1713
I1532
sI1714
I1717
sI1715
I1717
sI1716
I1717
sI1718
I1717
sI1727
I1728
sI1729
I1728
sI1730
I1731
sI1732
I1731
sI1734
I1735
sI1741
I1740
sI1742
I1743
sI1792
I1791
sI1793
I1794
sI1796
I1795
sI1797
I1795
sI1798
I1799
sI1802
I1801
sI1805
I1804
sI1858
I1857
sI1859
I1857
sI1860
I1862
sI1861
I1862
sI1867
I1866
sI1868
I1866
sI1869
I1866
sI1870
I1872
sI1871
I1872
sI1882
I1881
sI1883
I1884
sI1885
I1886
sI1888
I1887
sI1889
I1887
sI1890
I1892
sI1891
I1892
sI1893
I1892
sI1894
I1892
sI1895
I1896
sI1910
I1909
sI2030
I2029
sI2040
I2039
sI2041
I2042
sI2047
I2046
sI2048
I2050
sI2049
I2050
sI2055
I2056
sI2064
I2063
sI2065
I2063
sI2066
I2068
sI2067
I2068
sI2070
I2069
sI2071
I2072
sI2073
I2074
sI2219
I2218
sI2220
I2221
sI2222
I2221
sI2226
I2225
sI2227
I2228
sI2233
I2232
sI2234
I2232
sI2235
I2236
sI2244
I2243
sI2245
I2246
sI2248
I2247
sI2249
I2251
sI2250
I2251
sI2252
I2251
sI2340
I2519
sI2342
I2341
sI2399
I2398
sI2400
I2401
sI2402
I2401
sI2407
I2406
sI2414
I2413
sI2415
I2417
sI2416
I2417
sI2423
I2422
sI2424
I2425
sI2428
I2427
sI2429
I2427
sI2430
I2432
sI2431
I2432
sI2520
I2699
sI2521
I2523
sI2522
I2523
sI2524
I2523
sI2525
I2526
sI2564
I2563
sI2565
I2567
sI2566
I2567
sI2568
I2567
sI2569
I2570
sI2578
I2577
sI2579
I2577
sI2580
I2401
sI2581
I2401
sI2582
I2401
sI2583
I2585
sI2584
I2585
sI2589
I2588
sI2591
I2590
sI2593
I2592
sI2594
I2592
sI2595
I2596
sI2597
I2596
sI2598
I2596
sI2599
I2600
sI2601
I2600
sI2602
I2603
sI2698
I2697
sI2700
I2879
sI2703
I2702
sI2704
I2702
sI2705
I2706
sI2744
I2743
sI2745
I2743
sI2746
I2926
sI2747
I2749
sI2748
I2749
sI2760
I2759
sI2761
I2759
sI2762
I2942
sI2763
I2942
sI2764
I2585
sI2765
I2767
sI2766
I2767
sI2770
I2769
sI2771
I2769
sI2772
I2592
sI2773
I2953
sI2774
I2953
sI2775
I2955
sI2776
I2956
sI2777
I2957
sI2778
I2958
sI2779
I2781
sI2780
I2781
sI2782
I2781
sI2874
I2873
sI2876
I2875
sI2877
I2875
sI2878
I2879
sI2880
I2882
sI2881
I2882
sI2886
I2885
sI2887
I2707
sI2888
I2889
sI2894
I2893
sI2899
I2898
sI2900
I2901
sI2927
I2926
sI2928
I3108
sI2929
I2930
sI2941
I2940
sI2943
I2942
sI2944
I2942
sI2945
I2947
sI2946
I2947
sI2948
I2947
sI2949
I2950
sI2951
I2950
sI2952
I2953
sI2954
I2953
sI2960
I2959
sI3042
I3041
sI3043
I2863
sI3044
I2864
sI3045
I2865
sI3046
I3047
sI3052
I3051
sI3053
I3054
sI3056
I3055
sI3057
I3058
sI3059
I3058
sI3060
I3239
sI3061
I3241
sI3062
I3063
sI3123
I3122
sI3124
I3122
sI3125
I3127
sI3126
I3127
sI3128
I3127
sI3129
I3127
sI3130
I2950
sI3131
I2950
sI3132
I3312
sI3133
I2953
sI3134
I3314
sI3135
I2955
sI3136
I3137
sI3138
I3137
sI3141
I3140
sI3142
I3143
sI3223
I3222
sI3224
I3225
sI3235
I3234
sI3236
I3237
sI3247
I3246
sI3250
I3249
sI3251
I3252
sI3253
I3252
sI3259
I3258
sI3260
I3261
sI3303
I3302
sI3304
I3484
sI3305
I3306
sI3307
I3306
sI3308
I3127
sI3309
I3489
sI3310
I3489
sI3311
I3312
sI3313
I3312
sI3315
I3314
sI3316
I3137
sI3317
I3137
sI3318
I3137
sI3319
I3499
sI3320
I3321
sI3322
I3321
sI3405
I3404
sI3406
I3407
sI3411
I3410
sI3414
I3413
sI3426
I3425
sI3427
I3428
sI3432
I3431
sI3433
I3613
sI3434
I3435
sI3436
I3435
sI3442
I3441
sI3485
I3486
sI3488
I3489
sI3490
I3489
sI3491
I3312
sI3492
I3312
sI3493
I3312
sI3494
I3314
sI3495
I3675
sI3496
I3676
sI3497
I3676
sI3498
I3499
sI3500
I3499
sI3501
I3321
sI3502
I3682
sI3503
I3504
sI3582
I3581
sI3583
I3584
sI3586
I3585
sI3594
I3593
sI3595
I3596
sI3600
I3779
sI3601
I3421
sI3602
I3603
sI3604
I3603
sI3605
I3425
sI3606
I3425
sI3607
I3428
sI3608
I3609
sI3614
I3613
sI3615
I3435
sI3616
I3435
sI3617
I3797
sI3618
I3798
sI3619
I3439
sI3620
I3621
sI3664
I3663
sI3665
I3666
sI3667
I3666
sI3668
I3489
sI3669
I3489
sI3670
I3489
sI3671
I3672
sI3673
I3672
sI3674
I3675
sI3677
I3676
sI3678
I3499
sI3679
I3499
sI3680
I3681
sI3763
I3762
sI3764
I3765
sI3769
I3768
sI3770
I3590
sI3771
I3591
sI3772
I3592
sI3773
I3774
sI3775
I3774
sI3776
I3777
sI3778
I3777
sI3780
I3779
sI3781
I3603
sI3782
I3603
sI3783
I3603
sI3784
I3603
sI3785
I3603
sI3786
I3789
sI3787
I3789
sI3788
I3789
sI3790
I3789
sI3792
I3791
sI3793
I3613
sI3794
I3613
sI3795
I3797
sI3796
I3797
sI3799
I3798
sI3848
I3847
sI3849
I4030
sI3850
I4030
sI3851
I3672
sI3852
I3672
sI3853
I4033
sI3854
I3675
sI3855
I3856
sI3857
I3856
sI3858
I4037
sI3859
I3681
sI3860
I3681
sI3861
I3862
sI3864
I3863
sI3942
I3941
sI3943
I3944
sI3949
I3948
sI3950
I4129
sI3951
I4129
sI3952
I3774
sI3953
I3774
sI3954
I3774
sI3955
I4135
sI3956
I3777
sI3957
I3777
sI3958
I3777
sI3959
I3779
sI3960
I3779
sI3961
I4143
sI3962
I4143
sI3963
I4143
sI3964
I4143
sI3965
I4143
sI3966
I3789
sI3967
I3789
sI3968
I3789
sI3969
I3789
sI3970
I3971
sI3973
I3972
sI3974
I3972
sI3975
I3797
sI3976
I3797
sI3977
I3978
sI3980
I3979
sI3983
I3982
sI4024
I4023
sI4026
I4025
sI4027
I4207
sI4028
I3847
sI4029
I4030
sI4031
I4030
sI4032
I4033
sI4034
I4033
sI4035
I4036
sI4038
I4037
sI4039
I4219
sI4040
I4220
sI4041
I3862
sI4042
I4043
sI4119
I4118
sI4126
I4125
sI4128
I4127
sI4130
I4129
sI4131
I4129
sI4132
I4134
sI4133
I4134
sI4136
I4135
sI4137
I4317
sI4138
I4317
sI4139
I4317
sI4140
I4143
sI4141
I4143
sI4142
I4143
sI4144
I4143
sI4145
I4143
sI4146
I4143
sI4147
I3789
sI4148
I3789
sI4149
I3971
sI4150
I3971
sI4151
I4152
sI4153
I4152
sI4154
I4152
sI4155
I4152
sI4156
I4158
sI4157
I4158
sI4206
I4205
sI4208
I4207
sI4209
I4210
sI4211
I4210
sI4212
I4033
sI4213
I4033
sI4214
I4033
sI4215
I4036
sI4216
I4217
sI4221
I4220
sI4248
I4247
sI4304
I4303
sI4306
I4305
sI4307
I4127
sI4308
I4127
sI4309
I4129
sI4310
I4129
sI4311
I4491
sI4312
I4491
sI4313
I4134
sI4314
I4315
sI4316
I4317
sI4318
I4317
sI4319
I4317
sI4320
I4143
sI4321
I4143
sI4322
I4143
sI4323
I4143
sI4324
I4143
sI4325
I4143
sI4326
I4143
sI4327
I4143
sI4328
I3971
sI4329
I4152
sI4330
I4152
sI4331
I4152
sI4332
I4152
sI4333
I4152
sI4334
I4152
sI4335
I4517
sI4336
I4517
sI4337
I4517
sI4338
I4158
sI4339
I4159
sI4340
I4341
sI4342
I4341
sI4343
I4163
sI4344
I4345
sI4377
I4376
sI4378
I4198
sI4379
I4199
sI4380
I4200
sI4381
I4201
sI4382
I4202
sI4383
I4384
sI4388
I4387
sI4389
I4210
sI4390
I4210
sI4391
I4571
sI4392
I4572
sI4393
I4572
sI4394
I4574
sI4395
I4396
sI4397
I4396
sI4398
I4218
sI4399
I4219
sI4400
I4220
sI4401
I4402
sI4478
I4479
sI4484
I4483
sI4485
I4305
sI4486
I4305
sI4487
I4667
sI4488
I4667
sI4489
I4491
sI4490
I4491
sI4492
I4491
sI4493
I4674
sI4494
I4495
sI4496
I4495
sI4497
I4317
sI4498
I4317
sI4499
I4317
sI4500
I4858
sI4501
I4861
sI4502
I4143
sI4503
I4143
sI4504
I4143
sI4505
I4143
sI4506
I4143
sI4507
I5047
sI4508
I5048
sI4509
I4152
sI4510
I4152
sI4511
I4152
sI4512
I4152
sI4513
I4152
sI4514
I4517
sI4515
I4517
sI4516
I4517
sI4518
I4517
sI4519
I4520
sI4521
I4522
sI4523
I4522
sI4560
I4559
sI4561
I4741
sI4562
I4741
sI4563
I4743
sI4564
I4744
sI4565
I4385
sI4566
I4386
sI4567
I4387
sI4568
I4387
sI4569
I4570
sI4573
I4572
sI4578
I4577
sI4579
I4581
sI4580
I4581
sI4615
I4614
sI4662
I4661
sI4663
I4483
sI4664
I4665
sI4666
I4665
sI4668
I4667
sI4669
I4849
sI4670
I4671
sI4672
I4671
sI4673
I4674
sI4677
I4676
sI4678
I4858
sI4679
I4858
sI4680
I4861
sI4681
I4861
sI4682
I4861
sI4683
I4861
sI4684
I5042
sI4685
I5047
sI4686
I5047
sI4687
I5047
sI4688
I5048
sI4689
I5049
sI4690
I5050
sI4691
I5050
sI4692
I5050
sI4693
I4152
sI4694
I4517
sI4695
I4517
sI4696
I4517
sI4697
I4517
sI4698
I4517
sI4699
I4520
sI4700
I4520
sI4701
I4522
sI4702
I4522
sI4703
I4522
sI4704
I4524
sI4705
I4525
sI4706
I4707
sI4737
I4736
sI4738
I4739
sI4742
I4741
sI4745
I4744
sI4746
I4926
sI4747
I4926
sI4748
I4570
sI4749
I4570
sI4750
I4570
sI4751
I4571
sI4752
I4572
sI4753
I4572
sI4754
I4755
sI4758
I4757
sI4759
I4761
sI4760
I4761
sI4779
I4778
sI4843
I4842
sI4845
I4844
sI4846
I4665
sI4847
I4667
sI4848
I4849
sI4850
I4849
sI4852
I4851
sI4854
I4853
sI4856
I4855
sI4857
I4858
sI4859
I4858
sI4860
I4861
sI4862
I4861
sI4863
I5042
sI4864
I5042
sI4865
I5047
sI4866
I5047
sI4867
I5047
sI4868
I5048
sI4869
I5049
sI4870
I5050
sI4871
I5050
sI4872
I5050
sI4873
I5050
sI4874
I4517
sI4875
I4517
sI4876
I4517
sI4877
I4517
sI4878
I4517
sI4879
I4520
sI4880
I4882
sI4881
I4882
sI4883
I4882
sI4884
I5063
sI4885
I5066
sI4886
I5066
sI4887
I4888
sI4914
I4913
sI4916
I4915
sI4917
I5097
sI4918
I5098
sI4919
I4920
sI4927
I4926
sI4928
I4926
sI4929
I5110
sI4930
I5110
sI4931
I4932
sI4933
I4932
sI4934
I5114
sI4935
I5115
sI4936
I4756
sI4937
I4757
sI4938
I4757
sI4939
I4941
sI4940
I4941
sI5011
I5010
sI5023
I5022
sI5024
I5025
sI5026
I5025
sI5027
I5025
sI5028
I4849
sI5029
I5030
sI5031
I5030
sI5032
I5212
sI5033
I4853
sI5034
I5035
sI5036
I5035
sI5037
I4858
sI5038
I4858
sI5039
I5219
sI5040
I5219
sI5043
I5042
sI5044
I5223
sI5045
I5047
sI5046
I5047
sI5051
I5050
sI5052
I5050
sI5053
I5050
sI5054
I5415
sI5055
I5415
sI5056
I5416
sI5057
I5416
sI5058
I5240
sI5059
I5240
sI5060
I5240
sI5061
I5062
sI5064
I5063
sI5065
I5066
sI5067
I5066
sI5068
I5069
sI5092
I5091
sI5094
I5093
sI5095
I4915
sI5096
I5097
sI5100
I5101
sI5103
I5102
sI5104
I4924
sI5105
I4925
sI5106
I4926
sI5107
I4926
sI5108
I5110
sI5109
I5110
sI5113
I5112
sI5116
I5115
sI5117
I5296
sI5118
I5299
sI5119
I5299
sI5120
I5121
sI5138
I5137
sI5200
I5199
sI5202
I5201
sI5203
I5204
sI5206
I5205
sI5207
I5209
sI5208
I5209
sI5210
I5209
sI5211
I5212
sI5213
I5212
sI5214
I5215
sI5217
I5216
sI5218
I5219
sI5220
I5399
sI5221
I5222
sI5224
I5223
sI5225
I5405
sI5226
I5227
sI5230
I5229
sI5231
I5050
sI5232
I5050
sI5233
I5415
sI5234
I5415
sI5235
I5415
sI5236
I5416
sI5237
I5416
sI5238
I5240
sI5239
I5240
sI5242
I5241
sI5243
I5063
sI5244
I5063
sI5245
I5246
sI5272
I5271
sI5273
I5274
sI5275
I5274
sI5276
I5277
sI5278
I5277
sI5279
I5280
sI5281
I5280
sI5282
I5102
sI5283
I5102
sI5284
I5102
sI5285
I4925
sI5286
I4926
sI5287
I5469
sI5288
I5469
sI5289
I5469
sI5290
I5110
sI5291
I5111
sI5292
I5112
sI5293
I5112
sI5294
I5295
sI5297
I5296
sI5298
I5299
sI5300
I5299
sI5372
I5371
sI5373
I5374
sI5376
I5375
sI5382
I5381
sI5383
I5384
sI5386
I5385
sI5387
I5566
sI5388
I5209
sI5389
I5569
sI5390
I5209
sI5391
I5212
sI5392
I5572
sI5393
I5573
sI5394
I5395
sI5406
I5405
sI5407
I5408
sI5410
I5409
sI5411
I5590
sI5412
I5590
sI5413
I5415
sI5414
I5415
sI5417
I5416
sI5418
I5416
sI5419
I5240
sI5420
I5421
sI5422
I5421
sI5423
I5421
sI5424
I5246
sI5425
I5246
sI5426
I5246
sI5427
I5247
sI5428
I5248
sI5429
I5430
sI5450
I5449
sI5454
I5453
sI5456
I5455
sI5457
I5277
sI5458
I5277
sI5459
I5460
sI5461
I5460
sI5462
I5460
sI5463
I5102
sI5464
I5102
sI5465
I4925
sI5466
I5469
sI5467
I5469
sI5468
I5469
sI5470
I5469
sI5471
I5650
sI5472
I5652
sI5473
I5652
sI5474
I5475
sI5476
I5475
sI5478
I5477
sI5479
I5480
sI5553
I5552
sI5561
I5560
sI5565
I5564
sI5567
I5566
sI5568
I5569
sI5570
I5569
sI5571
I5572
sI5575
I5574
sI5576
I5577
sI5578
I5577
sI5580
I5581
sI5587
I5586
sI5591
I5590
sI5592
I5771
sI5593
I5415
sI5594
I5415
sI5595
I5415
sI5596
I5416
sI5597
I5416
sI5598
I5416
sI5599
I5421
sI5600
I5421
sI5601
I5421
sI5602
I5421
sI5603
I5421
sI5604
I5246
sI5605
I5246
sI5606
I5246
sI5607
I5788
sI5608
I5788
sI5609
I5610
sI5611
I5610
sI5632
I5631
sI5633
I5453
sI5634
I5635
sI5636
I5635
sI5637
I5635
sI5638
I5998
sI5639
I5460
sI5640
I5460
sI5641
I5460
sI5642
I5460
sI5643
I5460
sI5644
I6007
sI5645
I6007
sI5646
I6007
sI5647
I6007
sI5648
I5469
sI5649
I5650
sI5651
I5650
sI5653
I5652
sI5654
I5475
sI5655
I5475
sI5656
I5475
sI5657
I5477
sI5658
I5477
sI5659
I5660
sI5731
I5730
sI5732
I5733
sI5746
I5745
sI5747
I5748
sI5749
I5748
sI5755
I5754
sI5756
I5577
sI5757
I5758
sI5759
I5758
sI5760
I5939
sI5762
I5761
sI5767
I5766
sI5768
I5769
sI5772
I5771
sI5773
I5954
sI5774
I5954
sI5775
I5954
sI5776
I5956
sI5777
I5956
sI5778
I5956
sI5779
I5421
sI5780
I5421
sI5781
I5421
sI5782
I5421
sI5783
I5421
sI5784
I5421
sI5785
I5788
sI5786
I5788
sI5787
I5788
sI5789
I5788
sI5816
I5815
sI5817
I5996
sI5818
I5998
sI5819
I5998
sI5820
I5460
sI5821
I5460
sI5822
I5460
sI5823
I5460
sI5824
I6007
sI5825
I6007
sI5826
I6007
sI5827
I6007
sI5828
I6007
sI5829
I5650
sI5830
I5650
sI5831
I5650
sI5832
I5652
sI5833
I5652
sI5834
I6014
sI5835
I6014
sI5836
I6017
sI5837
I6017
sI5838
I5839
sI5928
I5927
sI5929
I5930
sI5935
I5934
sI5936
I6115
sI5937
I5758
sI5938
I5939
sI5940
I6120
sI5941
I5761
sI5942
I5943
sI5945
I5944
sI5952
I5951
sI5953
I5954
sI5955
I5954
sI5957
I5956
sI5958
I5956
sI5959
I6320
sI5960
I6320
sI5961
I6320
sI5962
I6320
sI5963
I6503
sI5964
I6503
sI5965
I5788
sI5966
I5788
sI5967
I5788
sI5968
I5788
sI5969
I5788
sI5970
I5790
sI5971
I5972
sI5973
I5972
sI5982
I5981
sI5986
I5987
sI5994
I5993
sI5997
I5996
sI5999
I5998
sI6000
I5998
sI6001
I5998
sI6002
I6541
sI6003
I6545
sI6004
I6007
sI6005
I6007
sI6006
I6007
sI6008
I6007
sI6009
I6007
sI6010
I5650
sI6011
I5650
sI6012
I6014
sI6013
I6014
sI6015
I6014
sI6016
I6017
sI6019
I6020
sI6062
I6061
sI6091
I6090
sI6092
I5912
sI6093
I6094
sI6095
I6094
sI6097
I6096
sI6098
I5918
sI6099
I5919
sI6100
I6101
sI6103
I6102
sI6105
I6104
sI6106
I5926
sI6107
I5927
sI6108
I6109
sI6110
I6109
sI6112
I6111
sI6113
I6114
sI6116
I6115
sI6117
I6118
sI6119
I6118
sI6122
I6121
sI6123
I5943
sI6124
I5944
sI6125
I6126
sI6128
I6127
sI6133
I6132
sI6135
I6134
sI6136
I5956
sI6137
I5956
sI6138
I5956
sI6139
I6320
sI6140
I6320
sI6141
I6320
sI6142
I6502
sI6143
I6503
sI6144
I6503
sI6145
I6506
sI6146
I6506
sI6147
I6507
sI6148
I6150
sI6149
I6150
sI6151
I6150
sI6152
I6153
sI6154
I6153
sI6155
I6156
sI6178
I6177
sI6179
I5998
sI6180
I5998
sI6181
I6541
sI6182
I6541
sI6183
I6545
sI6184
I6545
sI6185
I6545
sI6186
I6007
sI6187
I6007
sI6188
I6007
sI6189
I6007
sI6190
I6007
sI6191
I6014
sI6192
I6014
sI6193
I6014
sI6194
I6195
sI6196
I6195
sI6198
I6197
sI6241
I6240
sI6242
I6061
sI6243
I6244
sI6269
I6270
sI6272
I6271
sI6273
I6094
sI6274
I6275
sI6276
I6275
sI6277
I6278
sI6279
I6278
sI6280
I6281
sI6283
I6282
sI6292
I6291
sI6294
I6293
sI6295
I6115
sI6296
I6297
sI6298
I6297
sI6299
I6120
sI6303
I6302
sI6304
I6305
sI6306
I6305
sI6307
I6127
sI6308
I6488
sI6309
I6310
sI6315
I6314
sI6316
I6314
sI6317
I5956
sI6318
I6320
sI6319
I6320
sI6321
I6320
sI6322
I6502
sI6323
I6503
sI6324
I6503
sI6325
I6506
sI6326
I6506
sI6327
I6507
sI6328
I6508
sI6329
I6509
sI6330
I6331
sI6359
I6358
sI6360
I6541
sI6361
I6541
sI6362
I6541
sI6363
I6723
sI6364
I6545
sI6365
I6545
sI6366
I6545
sI6367
I6007
sI6368
I6007
sI6369
I6007
sI6370
I6007
sI6371
I6554
sI6372
I6554
sI6373
I6554
sI6374
I6554
sI6375
I6376
sI6377
I6376
sI6378
I6558
sI6379
I6199
sI6380
I6381
sI6419
I6418
sI6420
I6240
sI6421
I6240
sI6422
I6240
sI6423
I6244
sI6424
I6425
sI6434
I6433
sI6435
I6436
sI6447
I6446
sI6448
I6268
sI6449
I6450
sI6452
I6451
sI6453
I6632
sI6454
I6275
sI6455
I6275
sI6456
I6457
sI6458
I6457
sI6459
I6278
sI6460
I6461
sI6466
I6465
sI6467
I6468
sI6469
I6468
sI6470
I6471
sI6472
I6471
sI6474
I6473
sI6479
I6300
sI6483
I6482
sI6484
I6485
sI6487
I6486
sI6489
I6488
sI6490
I6491
sI6494
I6493
sI6495
I6314
sI6496
I6314
sI6497
I6857
sI6498
I6320
sI6499
I6320
sI6500
I6320
sI6501
I6502
sI6504
I6503
sI6505
I6506
sI6510
I6511
sI6513
I6512
sI6517
I6518
sI6535
I6536
sI6540
I6541
sI6542
I6541
sI6543
I6723
sI6544
I6545
sI6546
I6545
sI6547
I6726
sI6548
I6726
sI6549
I6726
sI6550
I7088
sI6551
I6554
sI6552
I6554
sI6553
I6554
sI6555
I6556
sI6559
I6560
sI6599
I6598
sI6600
I6598
sI6601
I6783
sI6602
I6783
sI6603
I6604
sI6605
I6604
sI6613
I6612
sI6614
I6433
sI6615
I6436
sI6616
I6617
sI6633
I6632
sI6634
I6635
sI6636
I6635
sI6637
I6457
sI6638
I6818
sI6639
I6818
sI6640
I6641
sI6648
I6647
sI6649
I6829
sI6650
I6830
sI6651
I6471
sI6652
I6471
sI6653
I6473
sI6654
I6834
sI6655
I6656
sI6657
I6656
sI6660
I6840
sI6661
I6841
sI6662
I6482
sI6663
I6843
sI6664
I6665
sI6667
I6666
sI6669
I6668
sI6673
I6672
sI6674
I6493
sI6675
I6493
sI6676
I6857
sI6677
I6857
sI6678
I6857
sI6679
I6857
sI6680
I6320
sI6681
I6502
sI6682
I6502
sI6683
I6503
sI6684
I6503
sI6685
I6506
sI6686
I6506
sI6687
I6507
sI6688
I6508
sI6689
I6509
sI6690
I6870
sI6691
I6511
sI6692
I6512
sI6693
I6694
sI6698
I6697
sI6699
I6879
sI6700
I6701
sI6711
I6712
sI6715
I6716
sI6720
I6719
sI6721
I6722
sI6725
I6726
sI6727
I6726
sI6728
I6726
sI6729
I7088
sI6730
I7088
sI6731
I6554
sI6732
I6554
sI6733
I6554
sI6734
I6735
sI6736
I6735
sI6740
I6739
sI6778
I6777
sI6779
I6598
sI6780
I6960
sI6781
I6960
sI6782
I6783
sI6784
I6785
sI6791
I6790
sI6793
I6792
sI6794
I6973
sI6795
I6796
sI6813
I6812
sI6814
I6815
sI6819
I6818
sI6825
I6824
sI6826
I6827
sI6831
I6830
sI6832
I6830
sI6833
I6834
sI6835
I6834
sI6836
I7016
sI6837
I6656
sI6838
I6658
sI6839
I6659
sI6842
I6841
sI6844
I6843
sI6845
I6846
sI6848
I6847
sI6853
I6852
sI6854
I7034
sI6855
I7034
sI6856
I6857
sI6858
I6857
sI6859
I6857
sI6860
I7042
sI6861
I7042
sI6862
I7042
sI6863
I7042
sI6864
I7042
sI6865
I6506
sI6866
I6506
sI6867
I6507
sI6868
I6870
sI6869
I6870
sI6871
I6870
sI6872
I7052
sI6873
I6874
sI6875
I6874
sI6877
I6876
sI6878
I6879
sI6880
I6879
sI6882
I6881
sI6883
I6884
sI6891
I6892
sI6897
I6896
sI6901
I6900
sI6902
I6722
sI6903
I6723
sI6904
I6724
sI6905
I6726
sI6906
I6726
sI6907
I6726
sI6908
I7088
sI6909
I7088
sI6910
I7270
sI6911
I7270
sI6912
I6554
sI6913
I6735
sI6914
I6735
sI6915
I6735
sI6916
I7096
sI6917
I6737
sI6918
I6738
sI6919
I6920
sI6958
I6957
sI6959
I6960
sI6961
I6960
sI6963
I6962
sI6964
I6965
sI6971
I6970
sI6972
I6973
sI6974
I6973
sI6975
I6976
sI6986
I6985
sI6988
I6987
sI6993
I6992
sI6994
I6815
sI6995
I6815
sI6996
I6816
sI6997
I6817
sI6998
I6818
sI6999
I7000
sI7004
I7003
sI7005
I6824
sI7006
I7186
sI7007
I7008
sI7009
I7008
sI7010
I6830
sI7011
I7191
sI7012
I7192
sI7013
I7014
sI7017
I7016
sI7018
I7016
sI7019
I6840
sI7020
I6840
sI7021
I6841
sI7022
I6841
sI7023
I6843
sI7024
I7025
sI7026
I7025
sI7031
I7030
sI7032
I6852
sI7033
I7034
sI7035
I7034
sI7036
I6857
sI7037
I6857
sI7038
I6857
sI7039
I6857
sI7040
I7042
sI7041
I7042
sI7043
I7042
sI7044
I7042
sI7045
I7042
sI7046
I6506
sI7047
I6507
sI7048
I6870
sI7049
I6870
sI7050
I7051
sI7053
I7052
sI7054
I7055
sI7057
I7056
sI7058
I7238
sI7059
I6879
sI7060
I6879
sI7061
I7062
sI7063
I7062
sI7064
I6884
sI7065
I7066
sI7071
I7072
sI7081
I7080
sI7082
I7080
sI7083
I7084
sI7085
I7084
sI7086
I7266
sI7087
I7088
sI7089
I7088
sI7090
I7270
sI7091
I7270
sI7092
I7452
sI7093
I7275
sI7094
I7275
sI7095
I7096
sI7097
I7096
sI7098
I7099
sI7136
I7137
sI7140
I7139
sI7141
I7142
sI7143
I7142
sI7144
I7145
sI7151
I7150
sI7155
I7154
sI7157
I7156
sI7160
I7159
sI7174
I7173
sI7176
I7175
sI7177
I7357
sI7178
I7179
sI7183
I7182
sI7184
I7364
sI7185
I7186
sI7187
I7186
sI7188
I7189
sI7196
I7195
sI7197
I7016
sI7198
I7016
sI7199
I6840
sI7200
I7381
sI7201
I7381
sI7202
I7381
sI7203
I6843
sI7204
I7025
sI7205
I7206
sI7207
I7206
sI7208
I7209
sI7211
I7210
sI7212
I7210
sI7213
I7034
sI7214
I7034
sI7215
I7034
sI7216
I7034
sI7217
I6857
sI7218
I6857
sI7219
I6857
sI7220
I7042
sI7221
I7042
sI7222
I7042
sI7223
I7042
sI7224
I7042
sI7225
I7042
sI7226
I6506
sI7227
I6870
sI7228
I6870
sI7229
I7051
sI7230
I7051
sI7231
I7232
sI7233
I7232
sI7239
I7238
sI7240
I7238
sI7241
I7062
sI7242
I7243
sI7245
I7244
sI7261
I7260
sI7262
I7441
sI7263
I7443
sI7264
I7084
sI7265
I7266
sI7267
I7266
sI7268
I7088
sI7269
I7270
sI7271
I7270
sI7272
I7452
sI7273
I7452
sI7274
I7275
sI7276
I7275
sI7278
I7277
sI7317
I7316
sI7318
I7138
sI7319
I7139
sI7320
I7139
sI7321
I7142
sI7322
I7142
sI7323
I7142
sI7324
I7145
sI7325
I7326
sI7327
I7326
sI7332
I7331
sI7333
I7153
sI7334
I7154
sI7335
I7336
sI7354
I7353
sI7355
I7175
sI7356
I7357
sI7361
I7360
sI7368
I7367
sI7369
I7370
sI7371
I7370
sI7376
I7375
sI7377
I7556
sI7378
I7556
sI7379
I7739
sI7380
I7381
sI7382
I7381
sI7383
I7562
sI7384
I7206
sI7385
I7206
sI7386
I7206
sI7387
I7388
sI7389
I7388
sI7390
I7570
sI7391
I7571
sI7392
I7571
sI7393
I7571
sI7394
I7034
sI7395
I7034
sI7396
I7034
sI7397
I6857
sI7398
I6857
sI7399
I7042
sI7400
I7042
sI7401
I7042
sI7402
I7042
sI7403
I7763
sI7404
I7763
sI7405
I7763
sI7406
I7763
sI7407
I6870
sI7408
I7051
sI7409
I7051
sI7410
I7232
sI7411
I7232
sI7412
I7232
sI7413
I7414
sI7415
I7414
sI7416
I7236
sI7417
I7237
sI7418
I7238
sI7419
I7238
sI7420
I7238
sI7421
I7781
sI7422
I7243
sI7423
I7243
sI7424
I7244
sI7425
I7605
sI7426
I7606
sI7427
I7428
sI7442
I7441
sI7444
I7443
sI7445
I7266
sI7446
I7626
sI7447
I7266
sI7448
I7628
sI7449
I7270
sI7450
I7270
sI7451
I7452
sI7453
I7452
sI7454
I7634
sI7455
I7275
sI7456
I7457
sI7460
I7459
sI7461
I7641
sI7462
I7463
sI7496
I7495
sI7497
I7677
sI7498
I7677
sI7499
I7680
sI7500
I7680
sI7501
I7680
sI7502
I7142
sI7503
I7142
sI7504
I7506
sI7505
I7506
sI7511
I7510
sI7512
I7331
sI7513
I7153
sI7514
I7516
sI7515
I7516
sI7518
I7519
sI7534
I7533
sI7535
I7536
sI7539
I7538
sI7552
I7551
sI7557
I7556
sI7558
I7739
sI7559
I7739
sI7560
I7739
sI7561
I7562
sI7563
I7562
sI7564
I7562
sI7565
I7206
sI7566
I7568
sI7567
I7568
sI7572
I7571
sI7573
I7571
sI7574
I7932
sI7575
I7034
sI7576
I7034
sI7577
I6857
sI7578
I8120
sI7579
I8120
sI7580
I8120
sI7581
I7763
sI7582
I7763
sI7583
I7763
sI7584
I7763
sI7585
I7763
sI7586
I7763
sI7587
I7763
sI7588
I7051
sI7589
I7232
sI7590
I7232
sI7591
I7232
sI7592
I7232
sI7593
I7414
sI7594
I7414
sI7595
I7414
sI7596
I7236
sI7597
I7237
sI7598
I7238
sI7599
I7781
sI7600
I7781
sI7601
I7781
sI7602
I7781
sI7603
I7784
sI7604
I7605
sI7625
I7626
sI7627
I7626
sI7629
I7628
sI7630
I7628
sI7631
I7452
sI7632
I7633
sI7635
I7636
sI7637
I7636
sI7638
I7639
sI7640
I7639
sI7642
I7641
sI7643
I7644
sI7651
I7650
sI7675
I7674
sI7676
I7677
sI7678
I7677
sI7679
I7680
sI7681
I7680
sI7682
I7680
sI7683
I7686
sI7684
I7686
sI7685
I7686
sI7687
I7686
sI7688
I7508
sI7689
I7690
sI7691
I7690
sI7692
I7690
sI7693
I7331
sI7694
I7516
sI7695
I7516
sI7696
I7697
sI7711
I7710
sI7714
I7713
sI7717
I7716
sI7719
I7718
sI7720
I7721
sI7723
I7722
sI7725
I7724
sI7729
I7728
sI7730
I7731
sI7732
I7731
sI7733
I7734
sI7735
I7734
sI7737
I7736
sI7738
I7739
sI7740
I7739
sI7741
I7921
sI7742
I7562
sI7743
I7562
sI7744
I7562
sI7745
I8105
sI7746
I8106
sI7747
I7568
sI7748
I7749
sI7752
I7751
sI7753
I7932
sI7754
I7932
sI7755
I8113
sI7756
I8113
sI7757
I8120
sI7758
I8120
sI7759
I8120
sI7760
I8120
sI7761
I7763
sI7762
I7763
sI7764
I7763
sI7765
I7763
sI7766
I7763
sI7767
I7763
sI7768
I7232
sI7769
I7232
sI7770
I7232
sI7771
I7232
sI7772
I7414
sI7773
I7414
sI7774
I7414
sI7775
I7414
sI7776
I7414
sI7777
I7237
sI7778
I8140
sI7779
I7781
sI7780
I7781
sI7782
I7781
sI7783
I7784
sI7786
I7787
sI7806
I7805
sI7807
I7626
sI7808
I7628
sI7809
I7989
sI7810
I7989
sI7811
I7813
sI7812
I7813
sI7816
I7815
sI7817
I7997
sI7818
I7639
sI7819
I7639
sI7820
I7821
sI7822
I7821
sI7823
I7644
sI7824
I7825
sI7827
I7826
sI7829
I7828
sI7830
I7650
sI7831
I8011
sI7832
I7652
sI7833
I7834
sI7854
I7853
sI7855
I8035
sI7856
I7677
sI7857
I7677
sI7858
I8038
sI7859
I7680
sI7860
I7680
sI7861
I7680
sI7862
I7680
sI7863
I7866
sI7864
I7866
sI7865
I7866
sI7867
I7866
sI7868
I8048
sI7869
I7690
sI7870
I7690
sI7871
I7690
sI7872
I7690
sI7873
I7690
sI7874
I7516
sI7875
I7877
sI7876
I7877
sI7890
I7889
sI7897
I7896
sI7898
I7899
sI7900
I7899
sI7906
I7905
sI7908
I7907
sI7909
I7728
sI7910
I8090
sI7911
I7731
sI7912
I7731
sI7913
I7734
sI7914
I7734
sI7915
I7916
sI7917
I7916
sI7919
I7918
sI7920
I7921
sI7922
I7921
sI7923
I8102
sI7924
I8105
sI7925
I8105
sI7926
I8106
sI7927
I8106
sI7928
I7749
sI7929
I8109
sI7930
I7931
sI7933
I7932
sI7934
I8113
sI7935
I8113
sI7936
I8113
sI7937
I8120
sI7938
I8120
sI7939
I8120
sI7940
I8120
sI7941
I8120
sI7942
I7763
sI7943
I7763
sI7944
I7763
sI7945
I7763
sI7946
I7763
sI7947
I7763
sI7948
I7763
sI7949
I7232
sI7950
I7232
sI7951
I7232
sI7952
I7414
sI7953
I7414
sI7954
I7414
sI7955
I7414
sI7956
I8318
sI7957
I8318
sI7958
I8318
sI7959
I8140
sI7960
I8140
sI7961
I7962
sI7966
I7967
sI7968
I7967
sI7986
I7985
sI7987
I8167
sI7988
I7989
sI7990
I7989
sI7991
I8171
sI7992
I7813
sI7993
I7813
sI7994
I7995
sI7996
I7995
sI7998
I7997
sI7999
I8180
sI8000
I8001
sI8002
I8001
sI8003
I8001
sI8004
I7825
sI8005
I7825
sI8006
I8007
sI8009
I8008
sI8033
I8032
sI8034
I8035
sI8036
I8035
sI8037
I8038
sI8039
I8038
sI8040
I8220
sI8041
I8220
sI8042
I8220
sI8043
I8404
sI8044
I8046
sI8045
I8046
sI8047
I8046
sI8049
I8048
sI8050
I8048
sI8051
I8411
sI8052
I8411
sI8053
I8411
sI8054
I8236
sI8055
I8236
sI8056
I8236
sI8057
I8058
sI8076
I8075
sI8078
I8077
sI8079
I8259
sI8080
I7899
sI8081
I8261
sI8082
I8262
sI8083
I8084
sI8085
I8084
sI8086
I8087
sI8089
I8088
sI8091
I8090
sI8092
I8273
sI8093
I8273
sI8094
I8274
sI8095
I8096
sI8097
I8096
sI8098
I8278
sI8099
I8279
sI8100
I8279
sI8103
I8283
sI8104
I8284
sI8107
I8106
sI8108
I8109
sI8114
I8113
sI8115
I8113
sI8116
I8113
sI8117
I8120
sI8118
I8120
sI8119
I8120
sI8121
I8120
sI8122
I8120
sI8123
I7763
sI8124
I7763
sI8125
I7763
sI8126
I7763
sI8127
I8845
sI8128
I8845
sI8129
I8845
sI8130
I7232
sI8131
I7414
sI8132
I7414
sI8133
I7414
sI8134
I8497
sI8135
I8497
sI8136
I8318
sI8137
I8318
sI8138
I8318
sI8139
I8140
sI8141
I8140
sI8142
I7962
sI8143
I7963
sI8148
I8147
sI8168
I8348
sI8169
I7989
sI8170
I8171
sI8172
I8171
sI8173
I8353
sI8174
I8354
sI8175
I7995
sI8176
I7995
sI8177
I7997
sI8178
I7997
sI8179
I8180
sI8182
I8181
sI8183
I8362
sI8184
I8362
sI8185
I8187
sI8186
I8187
sI8188
I8008
sI8189
I8190
sI8191
I8011
sI8212
I8211
sI8213
I8032
sI8214
I8035
sI8215
I8035
sI8217
I8216
sI8218
I8038
sI8219
I8220
sI8221
I8220
sI8222
I8220
sI8223
I8404
sI8224
I8404
sI8225
I8226
sI8227
I8226
sI8229
I8228
sI8230
I8411
sI8231
I8411
sI8232
I8411
sI8233
I8411
sI8234
I8236
sI8235
I8236
sI8237
I8236
sI8260
I8440
sI8267
I8087
sI8268
I8088
sI8269
I8088
sI8270
I8090
sI8271
I8090
sI8272
I8273
sI8275
I8274
sI8280
I8459
sI8281
I8282
sI8286
I8285
sI8287
I8466
sI8288
I8109
sI8289
I8109
sI8290
I8110
sI8291
I8292
sI8294
I8293
sI8295
I8293
sI8296
I8654
sI8297
I8659
sI8298
I8659
sI8299
I8120
sI8300
I8120
sI8301
I8120
sI8302
I8120
sI8303
I7763
sI8304
I8845
sI8305
I8845
sI8306
I8845
sI8307
I8845
sI8308
I8845
sI8309
I8845
sI8310
I8855
sI8311
I8855
sI8312
I8855
sI8313
I8855
sI8314
I8497
sI8315
I8497
sI8316
I8497
sI8317
I8318
sI8319
I8318
sI8320
I8140
sI8321
I8140
sI8322
I7962
sI8323
I8144
sI8324
I8144
sI8325
I8145
sI8326
I8327
sI8328
I8327
sI8352
I8353
sI8355
I8354
sI8356
I8354
sI8357
I7997
sI8358
I8180
sI8359
I8180
sI8360
I8180
sI8361
I8362
sI8363
I8362
sI8364
I8362
sI8365
I8187
sI8366
I8187
sI8367
I8187
sI8368
I8187
sI8369
I8190
sI8370
I8190
sI8371
I8551
sI8372
I8192
sI8373
I8374
sI8391
I8390
sI8392
I8571
sI8393
I8573
sI8394
I8573
sI8395
I8396
sI8399
I8398
sI8400
I8220
sI8401
I8580
sI8402
I8404
sI8403
I8404
sI8405
I8404
sI8407
I8406
sI8408
I8228
sI8409
I8228
sI8410
I8411
sI8412
I8411
sI8413
I8411
sI8414
I8595
sI8415
I8416
sI8417
I8416
sI8418
I8419
sI8448
I8447
sI8449
I8629
sI8450
I8629
sI8451
I8629
sI8452
I8273
sI8453
I8273
sI8454
I8274
sI8455
I8274
sI8456
I8457
sI8460
I8819
sI8461
I8462
sI8465
I8464
sI8467
I8466
sI8468
I8647
sI8469
I8109
sI8470
I8651
sI8471
I8472
sI8473
I8472
sI8474
I8654
sI8475
I8654
sI8476
I8654
sI8477
I8659
sI8478
I8659
sI8479
I8659
sI8480
I8659
sI8481
I8659
sI8482
I8840
sI8483
I8845
sI8484
I8845
sI8485
I8845
sI8486
I8845
sI8487
I8845
sI8488
I8845
sI8489
I8845
sI8490
I9391
sI8491
I8855
sI8492
I8855
sI8493
I8855
sI8494
I8855
sI8495
I8497
sI8496
I8497
sI8498
I8497
sI8499
I8318
sI8500
I8140
sI8501
I8140
sI8502
I8140
sI8503
I8144
sI8504
I8144
sI8505
I8507
sI8506
I8507
sI8533
I8532
sI8534
I8354
sI8535
I8716
sI8536
I8716
sI8537
I8716
sI8538
I8716
sI8539
I8180
sI8540
I8180
sI8541
I8722
sI8542
I8722
sI8543
I8723
sI8544
I8723
sI8545
I8723
sI8546
I8907
sI8547
I8907
sI8548
I8907
sI8549
I8551
sI8550
I8551
sI8552
I8551
sI8553
I8734
sI8554
I8555
sI8570
I8569
sI8572
I8571
sI8574
I8573
sI8575
I8576
sI8579
I8580
sI8581
I8580
sI8582
I8580
sI8583
I8584
sI8587
I8586
sI8588
I8586
sI8589
I8591
sI8590
I8591
sI8592
I8591
sI8593
I8595
sI8594
I8595
sI8598
I8597
sI8599
I8600
sI8630
I8629
sI8631
I8810
sI8632
I8992
sI8633
I8993
sI8634
I8274
sI8635
I8637
sI8636
I8637
sI8639
I8638
sI8640
I8819
sI8641
I8462
sI8642
I8643
sI8644
I8643
sI8645
I8824
sI8646
I8647
sI8648
I8647
sI8649
I8830
sI8650
I8651
sI8652
I8651
sI8653
I8654
sI8655
I8654
sI8656
I8654
sI8657
I8659
sI8658
I8659
sI8660
I8659
sI8661
I8840
sI8662
I8840
sI8663
I8845
sI8664
I8845
sI8665
I8845
sI8666
I8845
sI8667
I8845
sI8668
I8845
sI8669
I8845
sI8670
I9391
sI8671
I9391
sI8672
I8855
sI8673
I8855
sI8674
I8855
sI8675
I8855
sI8676
I8855
sI8677
I8497
sI8678
I8858
sI8679
I8858
sI8680
I8858
sI8681
I9039
sI8682
I9222
sI8683
I9222
sI8684
I8144
sI8685
I8507
sI8686
I8507
sI8687
I8688
sI8714
I8713
sI8715
I8716
sI8717
I8716
sI8718
I8716
sI8719
I8901
sI8720
I8901
sI8721
I8722
sI8724
I8723
sI8725
I8723
sI8726
I8907
sI8727
I8907
sI8728
I8907
sI8729
I8910
sI8730
I8910
sI8731
I8551
sI8732
I8912
sI8733
I8734
sI8750
I8749
sI8751
I8571
sI8752
I8931
sI8753
I8573
sI8754
I8935
sI8755
I8756
sI8759
I8758
sI8760
I8580
sI8761
I8940
sI8762
I8943
sI8763
I8943
sI8764
I8765
sI8767
I8766
sI8768
I8766
sI8769
I8591
sI8770
I8591
sI8771
I8591
sI8772
I8591
sI8773
I9133
sI8774
I8595
sI8775
I8595
sI8776
I8596
sI8777
I8597
sI8778
I8597
sI8779
I8600
sI8780
I8781
sI8811
I8810
sI8812
I8992
sI8813
I8993
sI8814
I8993
sI8815
I9175
sI8816
I8637
sI8817
I8818
sI8820
I8999
sI8821
I9001
sI8822
I8823
sI8825
I8824
sI8826
I9005
sI8827
I8647
sI8828
I9008
sI8829
I8830
sI8832
I8831
sI8833
I8834
sI8835
I8834
sI8836
I8834
sI8837
I8839
sI8838
I8839
sI8841
I8840
sI8842
I9021
sI8843
I8845
sI8844
I8845
sI8846
I8845
sI8847
I8845
sI8848
I9206
sI8849
I9206
sI8850
I9391
sI8851
I9391
sI8852
I9214
sI8853
I8855
sI8854
I8855
sI8856
I8855
sI8857
I8858
sI8859
I8858
sI8860
I9039
sI8861
I9039
sI8862
I9222
sI8863
I9222
sI8864
I9222
sI8865
I8507
sI8866
I8688
sI8867
I8688
sI8868
I8688
sI8869
I8870
sI8893
I8892
sI8895
I8894
sI8896
I8716
sI8897
I8716
sI8898
I8716
sI8899
I8901
sI8900
I8901
sI8904
I8903
sI8905
I8907
sI8906
I8907
sI8908
I8907
sI8909
I8910
sI8911
I8910
sI8913
I8912
sI8914
I8734
sI8915
I8916
sI8932
I8931
sI8934
I8935
sI8938
I8937
sI8939
I8940
sI8941
I8940
sI8942
I8943
sI8945
I8944
sI8946
I8766
sI8947
I8766
sI8948
I9130
sI8949
I9130
sI8950
I9130
sI8951
I9130
sI8952
I9133
sI8953
I9133
sI8954
I9133
sI8955
I8595
sI8956
I8596
sI8957
I9138
sI8958
I9138
sI8959
I9139
sI8960
I9139
sI8961
I8781
sI8962
I8782
sI8963
I8964
sI8994
I8993
sI8995
I9175
sI8996
I9176
sI8997
I9177
sI8998
I8999
sI9003
I9004
sI9006
I9005
sI9010
I9009
sI9011
I8831
sI9012
I9013
sI9015
I9014
sI9016
I9196
sI9017
I9196
sI9018
I8839
sI9019
I9020
sI9022
I9021
sI9023
I9202
sI9024
I8845
sI9025
I8845
sI9026
I9206
sI9027
I9206
sI9028
I9206
sI9029
I9391
sI9030
I9391
sI9031
I9391
sI9032
I9214
sI9033
I9214
sI9034
I9214
sI9035
I8855
sI9036
I8855
sI9037
I8858
sI9038
I9039
sI9040
I9039
sI9041
I9222
sI9042
I9222
sI9043
I9222
sI9044
I9222
sI9045
I9407
sI9046
I9407
sI9047
I9407
sI9048
I9050
sI9049
I9050
sI9072
I9071
sI9073
I9253
sI9074
I8894
sI9075
I9254
sI9076
I8716
sI9077
I9437
sI9078
I9437
sI9079
I9081
sI9080
I9081
sI9082
I9081
sI9083
I8903
sI9084
I8903
sI9085
I9266
sI9086
I9266
sI9087
I8907
sI9088
I9089
sI9090
I9089
sI9091
I8910
sI9092
I8912
sI9093
I8912
sI9094
I9096
sI9095
I9096
sI9112
I9111
sI9116
I9115
sI9117
I9118
sI9119
I9120
sI9121
I9120
sI9122
I9123
sI9124
I9125
sI9126
I9125
sI9127
I9125
sI9128
I9130
sI9129
I9130
sI9131
I9130
sI9132
I9133
sI9134
I9133
sI9135
I9133
sI9136
I9138
sI9137
I9138
sI9140
I9139
sI9143
I9142
sI9146
I9145
sI9148
I9147
sI9149
I9150
sI9159
I9158
sI9185
I9184
sI9186
I9365
sI9187
I9188
sI9189
I9188
sI9190
I9009
sI9191
I9372
sI9192
I9372
sI9193
I9013
sI9194
I9014
sI9195
I9196
sI9197
I9196
sI9198
I9378
sI9199
I9379
sI9200
I9380
sI9201
I9202
sI9203
I9202
sI9204
I9202
sI9205
I9206
sI9207
I9206
sI9208
I9206
sI9209
I9391
sI9210
I9391
sI9211
I9391
sI9212
I9391
sI9213
I9214
sI9215
I9214
sI9216
I9214
sI9217
I9039
sI9218
I9039
sI9219
I9039
sI9220
I9400
sI9221
I9222
sI9223
I9222
sI9224
I9222
sI9225
I9407
sI9226
I9407
sI9227
I9407
sI9228
I9407
sI9229
I9050
sI9230
I9231
sI9252
I9253
sI9255
I9254
sI9256
I9437
sI9257
I9437
sI9258
I9437
sI9259
I9437
sI9260
I9081
sI9261
I9081
sI9262
I9081
sI9263
I8903
sI9264
I9445
sI9265
I9266
sI9267
I9266
sI9269
I9268
sI9270
I9451
sI9271
I9451
sI9272
I9451
sI9273
I9455
sI9274
I9455
sI9275
I9276
sI9297
I9296
sI9299
I9298
sI9300
I9480
sI9301
I9480
sI9302
I9303
sI9305
I9304
sI9306
I9125
sI9307
I9125
sI9308
I9130
sI9309
I9130
sI9310
I9130
sI9311
I9130
sI9312
I9493
sI9313
I9493
sI9314
I9493
sI9315
I9493
sI9316
I9318
sI9317
I9318
sI9319
I9318
sI9320
I9321
sI9324
I9323
sI9326
I9325
sI9327
I9147
sI9328
I9329
sI9339
I9338
sI9344
I9343
sI9345
I9525
sI9346
I9526
sI9347
I9167
sI9348
I9349
sI9355
I9354
sI9359
I9180
sI9366
I9365
sI9367
I9547
sI9368
I9548
sI9369
I9548
sI9370
I9372
sI9371
I9372
sI9373
I9372
sI9374
I9375
sI9381
I9382
sI9383
I9382
sI9384
I9382
sI9385
I9206
sI9386
I9206
sI9387
I9567
sI9388
I9567
sI9389
I9391
sI9390
I9391
sI9392
I9391
sI9393
I9573
sI9394
I9214
sI9395
I9214
sI9396
I9214
sI9397
I9759
sI9398
I9400
sI9399
I9400
sI9402
I9401
sI9403
I9584
sI9404
I9584
sI9405
I9584
sI9406
I9407
sI9408
I9407
sI9409
I9407
sI9410
I9411
sI9431
I9430
sI9432
I9433
sI9434
I9433
sI9435
I9254
sI9436
I9437
sI9438
I9437
sI9439
I9437
sI9440
I9081
sI9441
I9081
sI9442
I9081
sI9443
I9445
sI9444
I9445
sI9448
I9447
sI9449
I9268
sI9450
I9451
sI9452
I9451
sI9453
I9455
sI9454
I9455
sI9471
I9472
sI9476
I9477
sI9479
I9480
sI9481
I9480
sI9482
I9663
sI9483
I9663
sI9484
I9304
sI9485
I9304
sI9486
I9304
sI9487
I9849
sI9488
I9849
sI9489
I9849
sI9490
I9130
sI9491
I9493
sI9492
I9493
sI9494
I9493
sI9495
I9493
sI9496
I9318
sI9497
I9318
sI9498
I9318
sI9499
I9318
sI9500
I9321
sI9501
I9321
sI9502
I9503
sI9504
I9503
sI9505
I9685
sI9506
I9685
sI9507
I9508
sI9509
I9510
sI9527
I9526
sI9528
I9708
sI9529
I9349
sI9530
I9350
sI9531
I9351
sI9532
I9533
sI9535
I9534
sI9536
I9537
sI9542
I9541
sI9544
I9543
sI9545
I9365
sI9546
I9547
sI9549
I9548
sI9550
I9730
sI9551
I9552
sI9561
I9560
sI9562
I9382
sI9563
I9382
sI9564
I9746
sI9565
I9746
sI9566
I9567
sI9568
I9567
sI9569
I9571
sI9570
I9571
sI9574
I9573
sI9575
I9573
sI9576
I9214
sI9577
I9759
sI9578
I9759
sI9579
I9759
sI9580
I9400
sI9581
I9401
sI9582
I9401
sI9583
I9584
sI9585
I9584
sI9586
I9407
sI9587
I9407
sI9588
I9407
sI9589
I9949
sI9590
I9411
sI9591
I9592
sI9613
I9612
sI9614
I9433
sI9615
I9975
sI9616
I9437
sI9617
I9437
sI9618
I9437
sI9619
I9437
sI9620
I9437
sI9621
I9081
sI9622
I9445
sI9623
I9445
sI9624
I9445
sI9625
I9445
sI9626
I9627
sI9628
I9627
sI9629
I9627
sI9630
I9451
sI9631
I9451
sI9632
I9451
sI9633
I9635
sI9634
I9635
sI9656
I9655
sI9657
I9658
sI9661
I9660
sI9662
I9663
sI9664
I9663
sI9665
I9663
sI9666
I9304
sI9667
I9849
sI9668
I9849
sI9669
I9849
sI9670
I9849
sI9671
I9849
sI9672
I9493
sI9673
I9493
sI9674
I9493
sI9675
I9493
sI9676
I9318
sI9677
I9318
sI9678
I9318
sI9679
I10040
sI9680
I10040
sI9681
I9321
sI9682
I9503
sI9683
I9503
sI9684
I9685
sI9686
I9685
sI9687
I9867
sI9688
I9689
sI9709
I9708
sI9710
I9889
sI9711
I9712
sI9715
I9714
sI9717
I9716
sI9721
I9720
sI9724
I9723
sI9726
I9725
sI9727
I9728
sI9729
I9728
sI9742
I9741
sI9743
I9922
sI9744
I9746
sI9745
I9746
sI9747
I9746
sI9748
I9567
sI9749
I9751
sI9750
I9751
sI9753
I9752
sI9754
I9573
sI9755
I9573
sI9756
I9759
sI9757
I9759
sI9758
I9759
sI9760
I9759
sI9761
I9942
sI9762
I9942
sI9763
I9942
sI9764
I9584
sI9765
I9584
sI9766
I9948
sI9767
I9948
sI9768
I9948
sI9769
I9949
sI9770
I9949
sI9771
I9592
sI9772
I9592
sI9773
I9774
sI9791
I9790
sI9792
I9612
sI9793
I9972
sI9794
I9974
sI9795
I9975
sI9796
I9975
sI9797
I9437
sI9798
I9437
sI9799
I9437
sI9800
I9437
sI9801
I9081
sI9802
I9445
sI9803
I9445
sI9804
I9445
sI9805
I9445
sI9806
I9627
sI9807
I9627
sI9808
I9627
sI9809
I9627
sI9810
I9451
sI9811
I9451
sI9812
I9994
sI9813
I9994
sI9814
I9815
sI9835
I9834
sI9840
I9839
sI9843
I9842
sI9844
I10023
sI9845
I10023
sI9846
I9849
sI9847
I9849
sI9848
I9849
sI9850
I9849
sI9851
I10032
sI9852
I10032
sI9853
I10032
sI9854
I10032
sI9855
I9493
sI9856
I9493
sI9857
I10040
sI9858
I10040
sI9859
I10040
sI9860
I10040
sI9861
I10040
sI9862
I10222
sI9863
I10044
sI9864
I10044
sI9865
I9685
sI9866
I9867
sI9888
I9887
sI9890
I9889
sI9893
I9892
sI9896
I9897
sI9904
I9903
sI9905
I9906
sI9907
I9906
sI9908
I9909
sI9914
I9913
sI9915
I9735
sI9916
I9736
sI9917
I9918
sI9923
I9922
sI9924
I10104
sI9925
I10104
sI9926
I9746
sI9927
I9746
sI9928
I9746
sI9929
I10289
sI9930
I9751
sI9931
I9932
sI9933
I9932
sI9934
I9932
sI9935
I9573
sI9936
I9759
sI9937
I9759
sI9938
I9759
sI9939
I9759
sI9940
I9759
sI9941
I9942
sI9943
I9942
sI9944
I9942
sI9945
I10306
sI9946
I9948
sI9947
I9948
sI9950
I9949
sI9951
I9953
sI9952
I9953
sI9970
I9971
sI9973
I9972
sI9976
I9975
sI9977
I9975
sI9978
I9975
sI9979
I9437
sI9980
I9437
sI9981
I9445
sI9982
I9445
sI9983
I9445
sI9984
I9445
sI9985
I9627
sI9986
I9627
sI9987
I9627
sI9988
I9627
sI9989
I9627
sI9990
I9451
sI9991
I9994
sI9992
I9994
sI9993
I9994
sI9995
I9994
sI10008
I10007
sI10010
I10009
sI10015
I10014
sI10016
I10017
sI10019
I10018
sI10020
I9839
sI10021
I9841
sI10022
I10023
sI10024
I10023
sI10025
I10023
sI10026
I10023
sI10027
I9849
sI10028
I9849
sI10029
I9849
sI10030
I9849
sI10031
I10032
sI10033
I10032
sI10034
I10032
sI10035
I10032
sI10036
I10032
sI10037
I10040
sI10038
I10040
sI10039
I10040
sI10041
I10040
sI10042
I10222
sI10043
I10044
sI10076
I10077
sI10083
I10082
sI10084
I10265
sI10085
I10265
sI10086
I9906
sI10087
I10267
sI10088
I10267
sI10089
I9909
sI10090
I9910
sI10091
I9911
sI10092
I10093
sI10097
I10096
sI10098
I9918
sI10099
I10100
sI10105
I10104
sI10106
I10285
sI10107
I10287
sI10108
I10287
sI10109
I10289
sI10110
I10289
sI10111
I9932
sI10112
I9932
sI10113
I9932
sI10114
I10474
sI10115
I10475
sI10116
I10475
sI10117
I10477
sI10118
I10477
sI10119
I9759
sI10120
I10301
sI10121
I10122
sI10123
I10122
sI10124
I10122
sI10125
I10306
sI10126
I10306
sI10127
I10128
sI10130
I10129
sI10131
I10129
sI10132
I9953
sI10133
I10134
sI10150
I10151
sI10152
I10153
sI10154
I10153
sI10155
I9975
sI10156
I9975
sI10157
I9975
sI10158
I9975
sI10159
I9975
sI10160
I9975
sI10161
I9437
sI10162
I9445
sI10163
I9445
sI10164
I9445
sI10165
I9627
sI10166
I9627
sI10167
I9627
sI10168
I9627
sI10169
I10711
sI10170
I10711
sI10171
I10533
sI10172
I10174
sI10173
I10174
sI10175
I10174
sI10176
I10177
sI10188
I10187
sI10189
I10190
sI10195
I10194
sI10198
I10197
sI10199
I10018
sI10200
I10018
sI10201
I9841
sI10202
I10023
sI10203
I10023
sI10204
I10023
sI10205
I10023
sI10206
I10023
sI10207
I9849
sI10208
I9849
sI10209
I9849
sI10210
I10032
sI10211
I10032
sI10212
I10032
sI10213
I10032
sI10214
I10032
sI10215
I10032
sI10216
I10579
sI10217
I10579
sI10218
I10220
sI10219
I10220
sI10221
I10220
sI10223
I10222
sI10224
I10225
sI10248
I10247
sI10250
I10249
sI10251
I10252
sI10258
I10257
sI10259
I10080
sI10260
I10080
sI10261
I10081
sI10262
I10442
sI10263
I10442
sI10264
I10265
sI10266
I10265
sI10268
I10267
sI10269
I10270
sI10272
I10271
sI10273
I10274
sI10275
I10274
sI10276
I10277
sI10278
I10277
sI10279
I10458
sI10280
I10100
sI10281
I10101
sI10282
I10102
sI10283
I10284
sI10286
I10285
sI10288
I10287
sI10290
I10289
sI10291
I10289
sI10292
I9932
sI10293
I10474
sI10294
I10474
sI10295
I10475
sI10296
I10475
sI10297
I10477
sI10298
I10477
sI10299
I10480
sI10300
I10301
sI10302
I10301
sI10303
I10122
sI10304
I10306
sI10305
I10306
sI10309
I10308
sI10310
I10490
sI10311
I10490
sI10312
I10493
sI10313
I10314
sI10329
I10328
sI10330
I10151
sI10331
I10151
sI10332
I10153
sI10333
I10153
sI10334
I10153
sI10335
I9975
sI10336
I9975
sI10337
I9975
sI10338
I9975
sI10339
I9975
sI10340
I9975
sI10341
I11239
sI10342
I11239
sI10343
I9445
sI10344
I9627
sI10345
I9627
sI10346
I9627
sI10347
I9627
sI10348
I10711
sI10349
I10711
sI10350
I10711
sI10351
I10711
sI10352
I10533
sI10353
I10533
sI10354
I10174
sI10355
I10174
sI10356
I10357
sI10368
I10367
sI10369
I10548
sI10370
I10371
sI10374
I10373
sI10375
I10556
sI10376
I10556
sI10377
I10197
sI10378
I10197
sI10379
I10197
sI10380
I10018
sI10381
I10023
sI10382
I10023
sI10383
I10023
sI10384
I10023
sI10385
I10023
sI10386
I10023
sI10387
I9849
sI10388
I9849
sI10389
I9849
sI10390
I10032
sI10391
I10032
sI10392
I10032
sI10393
I10032
sI10394
I10032
sI10395
I10032
sI10396
I10579
sI10397
I10579
sI10398
I10579
sI10399
I10400
sI10401
I10400
sI10403
I10402
sI10428
I10427
sI10430
I10429
sI10431
I10252
sI10432
I10252
sI10433
I10253
sI10434
I10614
sI10435
I10255
sI10436
I10256
sI10437
I10617
sI10438
I10617
sI10439
I10080
sI10440
I10621
sI10441
I10442
sI10443
I10442
sI10444
I10265
sI10445
I10265
sI10446
I10626
sI10447
I10267
sI10448
I10267
sI10449
I10270
sI10450
I10270
sI10451
I10271
sI10452
I10271
sI10453
I10274
sI10454
I10455
sI10459
I10458
sI10460
I10639
sI10461
I10101
sI10462
I10102
sI10463
I10284
sI10464
I10284
sI10465
I10285
sI10466
I10285
sI10467
I10287
sI10468
I10287
sI10469
I10289
sI10470
I10289
sI10471
I10289
sI10472
I10474
sI10473
I10474
sI10476
I10475
sI10478
I10477
sI10479
I10480
sI10481
I10480
sI10482
I10301
sI10483
I10301
sI10484
I10844
sI10485
I10306
sI10486
I10306
sI10487
I10307
sI10488
I10489
sI10491
I10490
sI10492
I10493
sI10506
I10505
sI10507
I10327
sI10508
I10328
sI10509
I10328
sI10510
I10870
sI10511
I10151
sI10512
I10872
sI10513
I10153
sI10514
I10153
sI10515
I10153
sI10516
I9975
sI10517
I9975
sI10518
I9975
sI10519
I11239
sI10520
I11239
sI10521
I11239
sI10522
I11239
sI10523
I11423
sI10524
I11423
sI10525
I11248
sI10526
I11248
sI10527
I10711
sI10528
I10711
sI10529
I10711
sI10530
I10711
sI10531
I10711
sI10532
I10533
sI10534
I10533
sI10535
I10714
sI10536
I10537
sI10549
I10548
sI10550
I10371
sI10551
I10371
sI10552
I10372
sI10553
I10373
sI10554
I10373
sI10555
I10556
sI10557
I10556
sI10558
I10556
sI10559
I10920
sI10560
I10920
sI10561
I10920
sI10562
I10920
sI10563
I10023
sI10564
I10023
sI10565
I10023
sI10566
I11108
sI10567
I11108
sI10568
I11108
sI10569
I11108
sI10570
I11108
sI10571
I10032
sI10572
I10032
sI10573
I10032
sI10574
I10937
sI10575
I10937
sI10576
I10937
sI10577
I10579
sI10578
I10579
sI10580
I10579
sI10581
I10761
sI10582
I10402
sI10583
I10584
sI10585
I10584
sI10608
I10607
sI10610
I10609
sI10611
I10609
sI10612
I10793
sI10613
I10614
sI10615
I10614
sI10616
I10617
sI10618
I10617
sI10619
I10798
sI10620
I10621
sI10622
I10621
sI10623
I10803
sI10624
I10803
sI10625
I10626
sI10627
I10626
sI10628
I10626
sI10629
I10270
sI10630
I10270
sI10631
I10271
sI10632
I10271
sI10633
I10455
sI10634
I10455
sI10635
I10455
sI10636
I10456
sI10637
I10457
sI10638
I10639
sI10640
I10639
sI10641
I10639
sI10642
I10639
sI10643
I10284
sI10644
I10284
sI10645
I11005
sI10646
I11005
sI10647
I10287
sI10648
I10287
sI10649
I10289
sI10650
I10289
sI10651
I10289
sI10652
I10474
sI10653
I10474
sI10654
I10474
sI10655
I10475
sI10656
I10475
sI10657
I10658
sI10659
I10658
sI10660
I10480
sI10661
I10842
sI10662
I10842
sI10663
I10842
sI10664
I10844
sI10665
I10844
sI10666
I10306
sI10667
I10307
sI10668
I10489
sI10669
I10489
sI10670
I10490
sI10671
I10490
sI10672
I10493
sI10673
I10674
sI10686
I10685
sI10687
I10867
sI10688
I10867
sI10689
I10870
sI10690
I10870
sI10691
I10870
sI10692
I10872
sI10693
I10872
sI10694
I10872
sI10695
I11053
sI10696
I11236
sI10697
I11236
sI10698
I11239
sI10699
I11239
sI10700
I11239
sI10701
I11239
sI10702
I11239
sI10703
I11423
sI10704
I11423
sI10705
I11248
sI10706
I11248
sI10707
I11248
sI10708
I10711
sI10709
I10711
sI10710
I10711
sI10712
I10711
sI10713
I10714
sI10715
I10714
sI10716
I10717
sI10727
I10726
sI10728
I10548
sI10729
I10910
sI10730
I10910
sI10731
I10912
sI10732
I10912
sI10733
I10912
sI10734
I10912
sI10735
I10556
sI10736
I10556
sI10737
I10556
sI10738
I11098
sI10739
I10920
sI10740
I10920
sI10741
I10920
sI10742
I10920
sI10743
I10920
sI10744
I10920
sI10745
I11108
sI10746
I11108
sI10747
I11108
sI10748
I11108
sI10749
I11108
sI10750
I11108
sI10751
I11108
sI10752
I11289
sI10753
I10937
sI10754
I10937
sI10755
I10937
sI10756
I10937
sI10757
I10937
sI10758
I10759
sI10760
I10759
sI10762
I10761
sI10763
I10942
sI10764
I10765
sI10788
I10787
sI10790
I10789
sI10791
I10972
sI10792
I10793
sI10795
I10794
sI10796
I10976
sI10797
I10798
sI10799
I10798
sI10804
I10803
sI10805
I10984
sI10806
I10626
sI10807
I10626
sI10808
I10626
sI10809
I11169
sI10810
I11169
sI10811
I11169
sI10812
I10271
sI10813
I10455
sI10814
I10455
sI10815
I10455
sI10816
I10456
sI10817
I10457
sI10818
I10639
sI10819
I10639
sI10820
I10639
sI10821
I10639
sI10822
I11182
sI10823
I11005
sI10824
I11005
sI10825
I11005
sI10826
I11005
sI10827
I11005
sI10828
I11005
sI10829
I10289
sI10830
I10289
sI10831
I10474
sI10832
I10474
sI10833
I10474
sI10834
I10474
sI10835
I10475
sI10836
I10658
sI10837
I10658
sI10838
I10658
sI10839
I10658
sI10840
I10842
sI10841
I10842
sI10843
I10842
sI10845
I10844
sI10846
I10844
sI10847
I11029
sI10848
I11029
sI10849
I11029
sI10850
I11030
sI10851
I11030
sI10852
I11033
sI10853
I10854
sI10865
I10864
sI10866
I10867
sI10868
I10867
sI10869
I10870
sI10871
I10870
sI10873
I10872
sI10874
I11053
sI10875
I11053
sI10876
I11236
sI10877
I11236
sI10878
I11239
sI10879
I11239
sI10880
I11239
sI10881
I11239
sI10882
I11423
sI10883
I11423
sI10884
I11423
sI10885
I11248
sI10886
I11248
sI10887
I11248
sI10888
I11248
sI10889
I10711
sI10890
I10711
sI10891
I10711
sI10892
I10711
sI10893
I10894
sI10895
I10894
sI10896
I11076
sI10897
I10898
sI10907
I10906
sI10908
I11087
sI10909
I10910
sI10911
I10912
sI10913
I10912
sI10914
I10912
sI10915
I11276
sI10916
I11098
sI10917
I11098
sI10918
I11098
sI10919
I10920
sI10921
I10920
sI10922
I10920
sI10923
I10920
sI10924
I10920
sI10925
I11108
sI10926
I11108
sI10927
I11108
sI10928
I11108
sI10929
I11108
sI10930
I11108
sI10931
I11289
sI10932
I11289
sI10933
I10937
sI10934
I10937
sI10935
I10937
sI10936
I10937
sI10938
I10937
sI10939
I10759
sI10940
I10941
sI10943
I10942
sI10945
I10944
sI10946
I10947
sI10967
I10968
sI10970
I10969
sI10971
I10972
sI10973
I10972
sI10974
I10794
sI10975
I10976
sI10978
I10977
sI10983
I10984
sI10985
I10984
sI10986
I10984
sI10987
I11169
sI10988
I11169
sI10989
I11169
sI10990
I11169
sI10991
I11169
sI10992
I11169
sI10993
I11531
sI10994
I10455
sI10995
I10455
sI10996
I10456
sI10997
I10639
sI10998
I10639
sI10999
I10639
sI11000
I11182
sI11001
I11182
sI11002
I11182
sI11003
I11182
sI11004
I11005
sI11006
I11005
sI11007
I11005
sI11008
I11367
sI11009
I11367
sI11010
I11367
sI11011
I11195
sI11012
I11195
sI11013
I11195
sI11014
I11195
sI11015
I11195
sI11016
I11195
sI11017
I11195
sI11018
I10658
sI11019
I10658
sI11020
I10842
sI11021
I10842
sI11022
I10842
sI11023
I10842
sI11024
I10844
sI11025
I10844
sI11026
I10844
sI11027
I11029
sI11028
I11029
sI11031
I11030
sI11032
I11033
sI11046
I11045
sI11047
I10867
sI11048
I10867
sI11049
I10870
sI11050
I10870
sI11051
I11052
sI11054
I11053
sI11055
I11236
sI11056
I11236
sI11057
I11236
sI11058
I11239
sI11059
I11239
sI11060
I11239
sI11061
I11239
sI11062
I11423
sI11063
I11423
sI11064
I11423
sI11065
I11423
sI11066
I11248
sI11067
I11248
sI11068
I11248
sI11069
I11248
sI11070
I11248
sI11071
I11253
sI11072
I11253
sI11073
I11253
sI11074
I10894
sI11075
I11076
sI11077
I11076
sI11085
I11084
sI11086
I11087
sI11088
I11087
sI11089
I10910
sI11090
I11091
sI11092
I11091
sI11093
I10912
sI11094
I11276
sI11095
I11276
sI11096
I11276
sI11097
I11098
sI11100
I11099
sI11101
I10920
sI11102
I10920
sI11103
I10920
sI11104
I11108
sI11105
I11108
sI11106
I11108
sI11107
I11108
sI11109
I11108
sI11110
I11289
sI11111
I11289
sI11112
I11289
sI11113
I11289
sI11114
I10937
sI11115
I10937
sI11116
I10937
sI11117
I10937
sI11118
I11119
sI11121
I11120
sI11122
I11123
sI11125
I11124
sI11126
I11127
sI11147
I11148
sI11150
I11149
sI11152
I11151
sI11157
I11156
sI11158
I11337
sI11159
I10980
sI11160
I11339
sI11162
I11161
sI11163
I11164
sI11165
I11164
sI11166
I11345
sI11167
I11169
sI11168
I11169
sI11170
I11169
sI11171
I11169
sI11172
I11531
sI11173
I11531
sI11174
I11715
sI11175
I11715
sI11176
I11715
sI11177
I11715
sI11178
I10639
sI11179
I11182
sI11180
I11182
sI11181
I11182
sI11183
I11182
sI11184
I11185
sI11186
I11185
sI11187
I11367
sI11188
I11367
sI11189
I11367
sI11190
I11367
sI11191
I11195
sI11192
I11195
sI11193
I11195
sI11194
I11195
sI11196
I11195
sI11197
I11195
sI11198
I11195
sI11199
I11738
sI11200
I10842
sI11201
I10842
sI11202
I10842
sI11203
I10842
sI11204
I10844
sI11205
I10844
sI11206
I11388
sI11207
I11388
sI11208
I11388
sI11209
I11389
sI11210
I11030
sI11211
I11392
sI11212
I11213
sI11224
I11223
sI11225
I11045
sI11226
I11045
sI11227
I11045
sI11228
I10867
sI11229
I10870
sI11230
I11052
sI11231
I11052
sI11232
I11052
sI11233
I11053
sI11234
I11053
sI11235
I11236
sI11237
I11236
sI11238
I11239
sI11240
I11239
sI11241
I11239
sI11242
I11423
sI11243
I11423
sI11244
I11423
sI11245
I11423
sI11246
I11248
sI11247
I11248
sI11249
I11248
sI11250
I11248
sI11251
I11253
sI11252
I11253
sI11254
I11253
sI11255
I11076
sI11256
I11076
sI11257
I11437
sI11258
I11259
sI11263
I11262
sI11265
I11264
sI11266
I11267
sI11268
I11267
sI11269
I11267
sI11270
I11091
sI11271
I11091
sI11272
I11091
sI11273
I11091
sI11274
I11276
sI11275
I11276
sI11277
I11276
sI11278
I11098
sI11279
I11099
sI11280
I11099
sI11281
I11099
sI11282
I11640
sI11283
I11640
sI11284
I11468
sI11285
I11468
sI11286
I11468
sI11287
I11468
sI11288
I11289
sI11290
I11289
sI11291
I11289
sI11292
I11289
sI11293
I11289
sI11294
I10937
sI11295
I10937
sI11296
I10937
sI11297
I11119
sI11298
I11119
sI11299
I11119
sI11300
I11120
sI11301
I11482
sI11302
I11482
sI11303
I11123
sI11304
I11305
sI11306
I11305
sI11327
I11328
sI11330
I11329
sI11331
I11511
sI11332
I11511
sI11333
I11513
sI11334
I11335
sI11338
I11337
sI11340
I11519
sI11341
I11161
sI11342
I11343
sI11344
I11343
sI11346
I11345
sI11347
I11345
sI11348
I11169
sI11349
I11169
sI11350
I11530
sI11351
I11531
sI11352
I11531
sI11353
I11531
sI11354
I11715
sI11355
I11715
sI11356
I11715
sI11357
I11715
sI11358
I11715
sI11359
I11182
sI11360
I11182
sI11361
I11182
sI11362
I11182
sI11363
I11182
sI11364
I11185
sI11365
I11185
sI11366
I11367
sI11368
I11367
sI11369
I11367
sI11370
I11367
sI11371
I11367
sI11372
I11195
sI11373
I11195
sI11374
I11195
sI11375
I11195
sI11376
I11195
sI11377
I11195
sI11378
I11738
sI11379
I11738
sI11380
I11738
sI11381
I11738
sI11382
I10842
sI11383
I11745
sI11384
I11745
sI11385
I11745
sI11386
I11388
sI11387
I11388
sI11390
I11389
sI11391
I11392
sI11402
I11401
sI11404
I11403
sI11405
I11403
sI11406
I11045
sI11407
I11045
sI11408
I10867
sI11409
I10870
sI11410
I11052
sI11411
I11052
sI11412
I11052
sI11413
I11053
sI11414
I11596
sI11415
I11596
sI11416
I11236
sI11417
I11596
sI11418
I11239
sI11419
I11239
sI11420
I11239
sI11421
I11423
sI11422
I11423
sI11424
I11423
sI11425
I11606
sI11426
I11606
sI11427
I11606
sI11428
I11248
sI11429
I11248
sI11430
I11248
sI11431
I11433
sI11432
I11433
sI11434
I11433
sI11435
I11616
sI11436
I11437
sI11442
I11441
sI11443
I11444
sI11445
I11444
sI11446
I11267
sI11447
I11267
sI11448
I11267
sI11449
I11631
sI11450
I11631
sI11451
I11631
sI11452
I11631
sI11453
I11633
sI11454
I11633
sI11455
I11456
sI11458
I11457
sI11459
I11640
sI11460
I11640
sI11461
I11640
sI11462
I11640
sI11463
I11640
sI11464
I12003
sI11465
I11468
sI11466
I11468
sI11467
I11468
sI11470
I11469
sI11471
I11469
sI11472
I11469
sI11473
I11830
sI11474
I12012
sI11475
I10937
sI11476
I10937
sI11477
I11119
sI11478
I11119
sI11479
I11119
sI11480
I11482
sI11481
I11482
sI11483
I11482
sI11484
I11305
sI11485
I11305
sI11486
I11305
sI11487
I11307
sI11488
I11308
sI11489
I11309
sI11490
I11310
sI11491
I11311
sI11492
I11312
sI11493
I11313
sI11494
I11495
sI11496
I11495
sI11506
I11505
sI11507
I11508
sI11510
I11509
sI11512
I11511
sI11514
I11513
sI11522
I11521
sI11523
I11343
sI11524
I11343
sI11525
I11345
sI11526
I11707
sI11527
I11707
sI11528
I11707
sI11529
I11530
sI11532
I11531
sI11533
I11531
sI11534
I11715
sI11535
I11715
sI11536
I11715
sI11537
I11715
sI11538
I11896
sI11539
I11896
sI11540
I11182
sI11541
I11182
sI11542
I11182
sI11543
I11182
sI11544
I11546
sI11545
I11546
sI11547
I11546
sI11548
I11367
sI11549
I11367
sI11550
I11367
sI11551
I12092
sI11552
I12092
sI11553
I11195
sI11554
I11195
sI11555
I11737
sI11556
I11737
sI11557
I11737
sI11558
I11738
sI11559
I11738
sI11560
I11738
sI11561
I11738
sI11562
I11745
sI11563
I11745
sI11564
I11745
sI11565
I11745
sI11566
I11745
sI11567
I11388
sI11568
I11388
sI11569
I11389
sI11570
I11751
sI11571
I11751
sI11572
I11573
sI11583
I11582
sI11584
I11403
sI11585
I11403
sI11586
I11403
sI11587
I12127
sI11588
I12128
sI11589
I12128
sI11590
I12128
sI11591
I11052
sI11592
I11052
sI11593
I11596
sI11594
I11596
sI11595
I11596
sI11597
I11596
sI11598
I11596
sI11599
I11239
sI11600
I11239
sI11601
I11423
sI11602
I11423
sI11603
I11604
sI11605
I11606
sI11607
I11606
sI11608
I11787
sI11609
I11787
sI11610
I11970
sI11611
I11613
sI11612
I11613
sI11614
I11613
sI11615
I11616
sI11618
I11617
sI11619
I11439
sI11620
I11440
sI11621
I11441
sI11622
I11803
sI11623
I11803
sI11624
I11444
sI11625
I11444
sI11626
I11444
sI11627
I11267
sI11628
I11989
sI11629
I11631
sI11630
I11631
sI11632
I11631
sI11634
I11633
sI11635
I11456
sI11636
I11456
sI11637
I11457
sI11638
I11457
sI11639
I11640
sI11641
I11640
sI11642
I11640
sI11643
I12003
sI11644
I12003
sI11645
I11648
sI11646
I11648
sI11647
I11648
sI11650
I11649
sI11651
I11830
sI11652
I11830
sI11653
I12012
sI11654
I12012
sI11655
I12012
sI11656
I12012
sI11657
I11119
sI11658
I11119
sI11659
I11482
sI11660
I11482
sI11661
I11482
sI11662
I11482
sI11663
I11482
sI11664
I11482
sI11665
I11305
sI11666
I11305
sI11667
I11307
sI11668
I11308
sI11669
I11671
sI11670
I11671
sI11672
I11671
sI11674
I11673
sI11676
I11675
sI11677
I11497
sI11678
I11679
sI11685
I11684
sI11686
I11687
sI11688
I11687
sI11689
I11509
sI11690
I11870
sI11691
I11692
sI11693
I11692
sI11694
I11695
sI11701
I11700
sI11702
I11881
sI11703
I11884
sI11704
I11884
sI11705
I11884
sI11706
I11707
sI11708
I11707
sI11709
I11710
sI11712
I11711
sI11713
I11711
sI11714
I11715
sI11716
I11715
sI11717
I11896
sI11718
I11896
sI11719
I11896
sI11720
I11896
sI11721
I12262
sI11722
I12085
sI11723
I12085
sI11724
I11546
sI11725
I11546
sI11726
I11546
sI11727
I11546
sI11728
I11546
sI11729
I11546
sI11730
I12092
sI11731
I12092
sI11732
I12092
sI11733
I12092
sI11734
I11737
sI11735
I11737
sI11736
I11737
sI11739
I11738
sI11740
I11738
sI11741
I11738
sI11742
I11745
sI11743
I11745
sI11744
I11745
sI11746
I11745
sI11747
I11928
sI11748
I11928
sI11749
I11928
sI11750
I11751
sI11760
I11759
sI11761
I11762
sI11763
I11762
sI11764
I11762
sI11765
I11762
sI11766
I12127
sI11767
I12127
sI11768
I12128
sI11769
I12128
sI11770
I12128
sI11771
I12128
sI11772
I11596
sI11773
I11596
sI11774
I11596
sI11775
I11596
sI11776
I11596
sI11777
I11596
sI11778
I11596
sI11779
I11596
sI11780
I12142
sI11781
I12142
sI11782
I11784
sI11783
I11784
sI11786
I11785
sI11788
I11787
sI11789
I11969
sI11790
I11970
sI11791
I11971
sI11792
I11971
sI11793
I11613
sI11794
I11795
sI11796
I11797
sI11798
I11797
sI11799
I11797
sI11800
I11440
sI11801
I11803
sI11802
I11803
sI11804
I11803
sI11805
I11803
sI11806
I11803
sI11807
I11989
sI11808
I11989
sI11809
I11989
sI11810
I11811
sI11812
I11811
sI11813
I11633
sI11814
I11633
sI11815
I11633
sI11816
I11456
sI11817
I11457
sI11818
I11640
sI11819
I11640
sI11820
I11640
sI11821
I11640
sI11822
I12003
sI11823
I12003
sI11824
I12003
sI11825
I12003
sI11826
I11648
sI11827
I11648
sI11828
I11648
sI11829
I11830
sI11831
I11830
sI11832
I12012
sI11833
I12012
sI11834
I12012
sI11835
I12012
sI11836
I12012
sI11837
I12012
sI11838
I11482
sI11839
I11482
sI11840
I11482
sI11841
I11482
sI11842
I11482
sI11843
I11482
sI11844
I11482
sI11845
I12208
sI11846
I12208
sI11847
I12208
sI11848
I12208
sI11849
I11671
sI11850
I11671
sI11851
I11671
sI11852
I11671
sI11853
I11673
sI11854
I11673
sI11855
I11675
sI11856
I11675
sI11857
I11679
sI11858
I11679
sI11859
I11679
sI11860
I11861
sI11865
I11864
sI11866
I12046
sI11867
I11687
sI11868
I12049
sI11869
I11870
sI11871
I11870
sI11873
I11872
sI11882
I11881
sI11883
I11884
sI11885
I11884
sI11886
I11707
sI11887
I11707
sI11888
I11707
sI11889
I11710
sI11890
I11710
sI11891
I11711
sI11892
I11711
sI11893
I11711
sI11894
I11715
sI11895
I11896
sI11897
I11896
sI11898
I11896
sI11899
I11896
sI11900
I12262
sI11901
I12262
sI11902
I12262
sI11903
I12085
sI11904
I12085
sI11905
I12085
sI11906
I12085
sI11907
I12085
sI11908
I12085
sI11909
I12092
sI11910
I12092
sI11911
I12092
sI11912
I12092
sI11913
I12092
sI11914
I12092
sI11915
I11737
sI11916
I11737
sI11917
I11737
sI11918
I11738
sI11919
I11738
sI11920
I11738
sI11921
I11738
sI11922
I11745
sI11923
I11745
sI11924
I11745
sI11925
I11745
sI11926
I11745
sI11927
I11928
sI11929
I11928
sI11930
I11751
sI11931
I11932
sI11939
I11938
sI11940
I11941
sI11942
I11941
sI11943
I11762
sI11944
I11762
sI11945
I12127
sI11946
I12127
sI11947
I12127
sI11948
I12128
sI11949
I12128
sI11950
I12128
sI11951
I12128
sI11952
I12128
sI11953
I11596
sI11954
I11596
sI11955
I11596
sI11956
I11596
sI11957
I11596
sI11958
I11596
sI11959
I12142
sI11960
I12142
sI11961
I12142
sI11962
I12142
sI11963
I12142
sI11964
I11784
sI11965
I11785
sI11966
I11967
sI11968
I11969
sI11972
I11971
sI11973
I11971
sI11974
I11795
sI11975
I11795
sI11976
I11977
sI11978
I11977
sI11979
I11977
sI11980
I11977
sI11981
I11803
sI11982
I11803
sI11983
I11803
sI11984
I11803
sI11985
I11803
sI11986
I12346
sI11987
I11989
sI11988
I11989
sI11992
I11991
sI11993
I12172
sI11994
I12175
sI11995
I12175
sI11996
I12175
sI11997
I12175
sI11998
I12175
sI11999
I11640
sI12000
I11640
sI12001
I12003
sI12002
I12003
sI12004
I12003
sI12005
I12003
sI12006
I12003
sI12007
I11648
sI12008
I11830
sI12009
I11830
sI12010
I11830
sI12011
I12012
sI12013
I12012
sI12014
I12012
sI12015
I12012
sI12016
I12012
sI12017
I12012
sI12018
I11482
sI12019
I11482
sI12020
I11482
sI12021
I11482
sI12022
I11482
sI12023
I11482
sI12024
I12208
sI12025
I12208
sI12026
I12208
sI12027
I12208
sI12028
I12208
sI12029
I12208
sI12030
I12208
sI12031
I11671
sI12032
I11671
sI12033
I11673
sI12034
I11673
sI12035
I11675
sI12036
I11675
sI12037
I11679
sI12038
I11679
sI12039
I11861
sI12040
I11861
sI12041
I12042
sI12047
I12046
sI12048
I12049
sI12050
I12049
sI12051
I12052
sI12060
I12239
sI12063
I12062
sI12064
I11884
sI12065
I11884
sI12066
I11884
sI12067
I11707
sI12068
I11707
sI12069
I11710
sI12070
I11710
sI12071
I11711
sI12072
I11711
sI12073
I11896
sI12074
I11896
sI12075
I11896
sI12076
I11896
sI12077
I11896
sI12078
I11896
sI12079
I12262
sI12080
I12262
sI12081
I12262
sI12082
I12262
sI12083
I12262
sI12084
I12085
sI12086
I12085
sI12087
I12266
sI12088
I12266
sI12089
I12092
sI12090
I12092
sI12091
I12092
sI12093
I12092
sI12094
I12092
sI12095
I12092
sI12096
I11737
sI12097
I11737
sI12098
I11738
sI12099
I11738
sI12100
I11738
sI12101
I11738
sI12102
I11745
sI12103
I11745
sI12104
I11745
sI12105
I11745
sI12106
I12288
sI12107
I12288
sI12108
I11928
sI12109
I12288
sI12110
I12112
sI12111
I12112
sI12118
I12117
sI12119
I12300
sI12120
I12300
sI12121
I11941
sI12122
I11941
sI12123
I12305
sI12124
I12305
sI12125
I12305
sI12126
I12127
sI12129
I12128
sI12130
I12128
sI12131
I12128
sI12132
I12128
sI12133
I12489
sI12134
I11596
sI12135
I11596
sI12136
I11596
sI12137
I12677
sI12138
I12142
sI12139
I12142
sI12140
I12142
sI12141
I12142
sI12143
I12142
sI12144
I12142
sI12145
I11967
sI12146
I11967
sI12147
I11967
sI12148
I11967
sI12149
I12150
sI12151
I12150
sI12152
I12332
sI12153
I12332
sI12154
I12335
sI12155
I12335
sI12156
I12335
sI12157
I11977
sI12158
I11977
sI12159
I11977
sI12160
I12343
sI12161
I12343
sI12162
I12343
sI12163
I12343
sI12164
I12343
sI12165
I12346
sI12166
I12346
sI12167
I12347
sI12168
I12348
sI12169
I11989
sI12170
I11990
sI12171
I12172
sI12173
I12172
sI12174
I12175
sI12176
I12175
sI12177
I12356
sI12178
I12356
sI12179
I12540
sI12180
I12540
sI12181
I12003
sI12182
I12003
sI12183
I12003
sI12184
I12003
sI12185
I12003
sI12186
I12545
sI12187
I12545
sI12188
I11830
sI12189
I11830
sI12190
I12012
sI12191
I12012
sI12192
I12012
sI12193
I12012
sI12194
I12012
sI12195
I12012
sI12196
I12012
sI12197
I12012
sI12198
I12012
sI12199
I11482
sI12200
I11482
sI12201
I12745
sI12202
I12745
sI12203
I12745
sI12204
I12208
sI12205
I12208
sI12206
I12208
sI12207
I12208
sI12209
I12208
sI12210
I12208
sI12211
I12208
sI12212
I12208
sI12213
I11673
sI12214
I11673
sI12215
I11675
sI12216
I11675
sI12217
I11679
sI12218
I12222
sI12219
I12222
sI12220
I12222
sI12221
I12222
sI12224
I12223
sI12225
I12045
sI12226
I12046
sI12227
I12228
sI12230
I12229
sI12231
I12232
sI12240
I12419
sI12241
I12061
sI12242
I12062
sI12243
I12062
sI12244
I12062
sI12245
I11884
sI12246
I11884
sI12247
I11884
sI12248
I11707
sI12249
I11710
sI12250
I11710
sI12251
I11711
sI12252
I11711
sI12253
I11896
sI12254
I11896
sI12255
I11896
sI12256
I11896
sI12257
I11896
sI12258
I11896
sI12259
I12262
sI12260
I12262
sI12261
I12262
sI12263
I12262
sI12264
I12085
sI12265
I12266
sI12267
I12266
sI12268
I12266
sI12269
I12266
sI12270
I12092
sI12271
I12092
sI12272
I12092
sI12273
I12092
sI12274
I12092
sI12275
I12092
sI12276
I12092
sI12277
I11737
sI12278
I11738
sI12279
I11738
sI12280
I11738
sI12281
I11738
sI12282
I11745
sI12283
I11745
sI12284
I12288
sI12285
I12288
sI12286
I12288
sI12287
I12288
sI12289
I12288
sI12290
I12292
sI12291
I12292
sI12298
I12297
sI12299
I12300
sI12301
I12300
sI12302
I12300
sI12303
I12305
sI12304
I12305
sI12306
I12305
sI12307
I12127
sI12308
I12128
sI12309
I12489
sI12310
I12489
sI12311
I12489
sI12312
I12489
sI12313
I12489
sI12314
I12677
sI12315
I12677
sI12316
I12677
sI12317
I12677
sI12318
I12677
sI12319
I12142
sI12320
I12142
sI12321
I12142
sI12322
I12142
sI12323
I12142
sI12324
I12142
sI12325
I12142
sI12326
I11967
sI12327
I11967
sI12328
I12330
sI12329
I12330
sI12331
I12330
sI12333
I12332
sI12334
I12335
sI12336
I12335
sI12337
I12335
sI12338
I12335
sI12339
I11977
sI12340
I12343
sI12341
I12343
sI12342
I12343
sI12344
I12343
sI12345
I12346
sI12350
I12349
sI12352
I12351
sI12353
I12172
sI12354
I12355
sI12357
I12356
sI12358
I12356
sI12359
I12540
sI12360
I12540
sI12361
I12540
sI12362
I12542
sI12363
I12542
sI12364
I12544
sI12365
I12545
sI12366
I12545
sI12367
I12545
sI12368
I12728
sI12369
I12728
sI12370
I12728
sI12371
I12012
sI12372
I12012
sI12373
I12012
sI12374
I12012
sI12375
I12012
sI12376
I12012
sI12377
I12012
sI12378
I12012
sI12379
I12745
sI12380
I12745
sI12381
I12745
sI12382
I12745
sI12383
I12745
sI12384
I12745
sI12385
I12745
sI12386
I12568
sI12387
I12568
sI12388
I12208
sI12389
I12568
sI12390
I12568
sI12391
I12568
sI12392
I12568
sI12393
I12568
sI12394
I11673
sI12395
I11675
sI12396
I12940
sI12397
I12402
sI12398
I12402
sI12399
I12402
sI12400
I12402
sI12401
I12402
sI12403
I12402
sI12404
I12584
sI12405
I12584
sI12406
I12584
sI12407
I12228
sI12408
I12228
sI12409
I12410
sI12411
I12410
sI12417
I12416
sI12420
I12599
sI12422
I12421
sI12423
I12421
sI12424
I12421
sI12425
I12421
sI12426
I11884
sI12427
I11884
sI12428
I11707
sI12429
I11710
sI12430
I11710
sI12431
I11711
sI12432
I11711
sI12433
I11896
sI12434
I11896
sI12435
I11896
sI12436
I11896
sI12437
I11896
sI12438
I12262
sI12439
I12262
sI12440
I12262
sI12441
I12262
sI12442
I12262
sI12443
I12262
sI12444
I12262
sI12445
I12266
sI12446
I12266
sI12447
I12266
sI12448
I12630
sI12449
I12630
sI12450
I12630
sI12451
I12630
sI12452
I12630
sI12453
I12092
sI12454
I12092
sI12455
I12092
sI12456
I12092
sI12457
I11737
sI12458
I11738
sI12459
I11738
sI12460
I11738
sI12461
I13184
sI12462
I13184
sI12463
I12288
sI12464
I12288
sI12465
I12288
sI12466
I12288
sI12467
I12288
sI12468
I12288
sI12469
I12288
sI12470
I12472
sI12471
I12472
sI12478
I12477
sI12479
I12659
sI12480
I12660
sI12481
I12661
sI12482
I12661
sI12483
I12665
sI12484
I12665
sI12485
I12665
sI12486
I12665
sI12487
I12667
sI12488
I12489
sI12490
I12489
sI12491
I12489
sI12492
I12489
sI12493
I12853
sI12494
I12853
sI12495
I12677
sI12496
I12677
sI12497
I12677
sI12498
I12677
sI12499
I12677
sI12500
I12677
sI12501
I12142
sI12502
I12142
sI12503
I12142
sI12504
I12142
sI12505
I12142
sI12506
I12330
sI12507
I12330
sI12508
I12330
sI12509
I12330
sI12510
I12330
sI12511
I12512
sI12513
I12514
sI12515
I12514
sI12516
I12335
sI12517
I12335
sI12518
I12877
sI12519
I12877
sI12520
I12343
sI12521
I12343
sI12522
I12343
sI12523
I12524
sI12525
I12524
sI12526
I12346
sI12527
I12347
sI12528
I12348
sI12529
I12349
sI12530
I12349
sI12531
I12351
sI12532
I12351
sI12533
I12351
sI12534
I12355
sI12535
I12355
sI12536
I12356
sI12537
I12356
sI12538
I12540
sI12539
I12540
sI12541
I12540
sI12543
I12542
sI12546
I12545
sI12547
I12726
sI12548
I12728
sI12549
I12728
sI12550
I12728
sI12551
I12911
sI12552
I12911
sI12553
I12911
sI12554
I12911
sI12555
I12911
sI12556
I12911
sI12557
I12911
sI12558
I12745
sI12559
I12745
sI12560
I12745
sI12561
I12745
sI12562
I12745
sI12563
I12745
sI12564
I12745
sI12565
I12745
sI12566
I12745
sI12567
I12568
sI12569
I12568
sI12570
I12568
sI12571
I12568
sI12572
I12568
sI12573
I12568
sI12574
I12568
sI12575
I12940
sI12576
I12940
sI12577
I12940
sI12578
I12940
sI12579
I12940
sI12580
I12402
sI12581
I12402
sI12582
I12402
sI12583
I12584
sI12585
I12584
sI12586
I12584
sI12587
I12584
sI12588
I12410
sI12589
I12410
sI12590
I12410
sI12591
I12592
sI12594
I12593
sI12596
I12595
sI12597
I12598
sI12600
I12599
sI12601
I12421
sI12602
I12421
sI12603
I12421
sI12604
I12421
sI12605
I12421
sI12606
I12421
sI12607
I12421
sI12608
I12421
sI12609
I11710
sI12610
I11710
sI12611
I13157
sI12612
I13157
sI12613
I13157
sI12614
I13157
sI12615
I13157
sI12616
I13157
sI12617
I13157
sI12618
I12802
sI12619
I12802
sI12620
I12802
sI12621
I12802
sI12622
I12802
sI12623
I12802
sI12624
I12802
sI12625
I12985
sI12626
I12266
sI12627
I12630
sI12628
I12630
sI12629
I12630
sI12631
I12630
sI12632
I12630
sI12633
I12630
sI12634
I12630
sI12635
I12630
sI12636
I12630
sI12637
I12630
sI12638
I13184
sI12639
I13184
sI12640
I13184
sI12641
I13184
sI12642
I13184
sI12643
I13184
sI12644
I13007
sI12645
I13007
sI12646
I13007
sI12647
I13007
sI12648
I12288
sI12649
I12652
sI12650
I12652
sI12651
I12652
sI12656
I12655
sI12657
I12477
sI12658
I12659
sI12662
I12661
sI12663
I12843
sI12664
I12665
sI12666
I12665
sI12669
I12668
sI12670
I12850
sI12671
I12851
sI12672
I12853
sI12673
I12853
sI12674
I12853
sI12675
I12677
sI12676
I12677
sI12678
I12677
sI12679
I12677
sI12680
I12677
sI12681
I12677
sI12682
I12142
sI12683
I12142
sI12684
I12142
sI12685
I13228
sI12686
I13050
sI12687
I12871
sI12688
I12871
sI12689
I12871
sI12690
I12871
sI12691
I12692
sI12693
I12692
sI12694
I12514
sI12695
I12514
sI12696
I12877
sI12697
I12877
sI12698
I12877
sI12699
I12877
sI12700
I12882
sI12701
I12882
sI12702
I12882
sI12703
I12882
sI12704
I12524
sI12705
I12524
sI12706
I12524
sI12707
I12347
sI12708
I12348
sI12709
I12891
sI12710
I12891
sI12711
I12891
sI12712
I12892
sI12713
I12892
sI12714
I12892
sI12715
I12355
sI12716
I12356
sI12717
I12720
sI12718
I12720
sI12719
I12720
sI12721
I12720
sI12722
I12542
sI12723
I12724
sI12727
I12726
sI12729
I12728
sI12730
I12910
sI12731
I12911
sI12732
I12911
sI12733
I12911
sI12734
I12911
sI12735
I12911
sI12736
I12911
sI12737
I12911
sI12738
I12745
sI12739
I12745
sI12740
I12745
sI12741
I12745
sI12742
I12745
sI12743
I12745
sI12744
I12745
sI12746
I12745
sI12748
I12747
sI12749
I12568
sI12750
I12568
sI12751
I12568
sI12752
I12568
sI12753
I12568
sI12754
I12940
sI12755
I12940
sI12756
I12940
sI12757
I12940
sI12758
I12940
sI12759
I12940
sI12760
I12940
sI12761
I12940
sI12762
I12940
sI12763
I12584
sI12764
I12584
sI12765
I12584
sI12766
I12584
sI12767
I12950
sI12768
I12950
sI12769
I12950
sI12770
I12950
sI12771
I12772
sI12774
I12773
sI12777
I12776
sI12779
I12778
sI12780
I12958
sI12781
I12958
sI12782
I12421
sI12783
I12421
sI12784
I12421
sI12785
I12421
sI12786
I12421
sI12787
I12421
sI12788
I12421
sI12789
I13514
sI12790
I13157
sI12791
I13157
sI12792
I13157
sI12793
I13157
sI12794
I13157
sI12795
I13157
sI12796
I13157
sI12797
I13157
sI12798
I13157
sI12799
I12802
sI12800
I12802
sI12801
I12802
sI12803
I12802
sI12804
I12985
sI12805
I12985
sI12806
I12985
sI12807
I12985
sI12808
I12630
sI12809
I12630
sI12810
I12630
sI12811
I12630
sI12812
I12630
sI12813
I12630
sI12814
I12630
sI12815
I12630
sI12816
I12630
sI12817
I13540
sI12818
I13184
sI12819
I13184
sI12820
I13184
sI12821
I13184
sI12822
I13184
sI12823
I13184
sI12824
I13184
sI12825
I13007
sI12826
I13007
sI12827
I13007
sI12828
I13007
sI12829
I13007
sI12830
I12832
sI12831
I12832
sI12837
I12836
sI12838
I12839
sI12841
I12840
sI12842
I12843
sI12844
I12843
sI12845
I12846
sI12847
I12846
sI12852
I12853
sI12854
I12853
sI12855
I13035
sI12856
I13035
sI12857
I12677
sI12858
I12677
sI12859
I12677
sI12860
I12677
sI12861
I12677
sI12862
I13402
sI12863
I13403
sI12864
I13404
sI12865
I13228
sI12866
I13228
sI12867
I13050
sI12868
I13050
sI12869
I13050
sI12870
I12871
sI12872
I12871
sI12873
I13053
sI12874
I13053
sI12875
I12877
sI12876
I12877
sI12878
I12877
sI12879
I12877
sI12880
I12882
sI12881
I12882
sI12883
I12882
sI12884
I12882
sI12885
I12882
sI12886
I12524
sI12887
I12891
sI12888
I12891
sI12889
I12891
sI12890
I12891
sI12893
I12892
sI12894
I12892
sI12895
I12892
sI12896
I12892
sI12897
I12720
sI12898
I12720
sI12899
I12720
sI12900
I12720
sI12901
I12720
sI12902
I12720
sI12903
I12724
sI12904
I12905
sI12908
I12907
sI12909
I12910
sI12912
I12911
sI12913
I12911
sI12914
I12911
sI12915
I12911
sI12916
I12911
sI12917
I12911
sI12918
I12911
sI12919
I12745
sI12920
I12745
sI12921
I12745
sI12922
I12745
sI12923
I12745
sI12924
I12745
sI12925
I12745
sI12926
I12745
sI12927
I12747
sI12928
I12747
sI12929
I12747
sI12930
I12747
sI12931
I12747
sI12932
I13472
sI12933
I13472
sI12934
I13472
sI12935
I12940
sI12936
I12940
sI12937
I12940
sI12938
I12940
sI12939
I12940
sI12941
I12940
sI12942
I13122
sI12943
I13122
sI12944
I13122
sI12945
I13122
sI12946
I13129
sI12947
I13129
sI12948
I13129
sI12949
I12950
sI12953
I12952
sI12956
I12957
sI12959
I12958
sI12960
I12958
sI12961
I12958
sI12962
I12958
sI12963
I12958
sI12964
I12421
sI12965
I12421
sI12966
I12421
sI12967
I13691
sI12968
I13691
sI12969
I13514
sI12970
I13514
sI12971
I13514
sI12972
I13157
sI12973
I13157
sI12974
I13157
sI12975
I13157
sI12976
I13157
sI12977
I13157
sI12978
I13157
sI12979
I13157
sI12980
I12982
sI12981
I12982
sI12983
I12982
sI12984
I12985
sI12986
I12985
sI12987
I12985
sI12988
I12985
sI12989
I12630
sI12990
I12630
sI12991
I12630
sI12992
I12630
sI12993
I12630
sI12994
I12630
sI12995
I13532
sI12996
I13540
sI12997
I13540
sI12998
I13540
sI12999
I13184
sI13000
I13184
sI13001
I13184
sI13002
I13184
sI13003
I13184
sI13004
I13184
sI13005
I13185
sI13006
I13007
sI13008
I13007
sI13009
I13007
sI13010
I12832
sI13011
I12832
sI13012
I13013
sI13019
I13018
sI13021
I13020
sI13022
I13203
sI13023
I12843
sI13024
I13203
sI13025
I12846
sI13026
I13027
sI13029
I13028
sI13033
I13032
sI13034
I13035
sI13036
I13035
sI13037
I13217
sI13038
I13217
sI13039
I13217
sI13040
I13217
sI13041
I13402
sI13042
I13402
sI13043
I13403
sI13044
I13404
sI13045
I13228
sI13046
I13228
sI13047
I13228
sI13048
I13228
sI13049
I13050
sI13052
I13051
sI13054
I13053
sI13055
I13053
sI13056
I12877
sI13057
I12877
sI13058
I12877
sI13059
I12877
sI13060
I12882
sI13061
I12882
sI13062
I12882
sI13063
I12882
sI13064
I12882
sI13065
I12882
sI13066
I12882
sI13067
I12891
sI13068
I12891
sI13069
I12891
sI13070
I12891
sI13071
I12891
sI13072
I12892
sI13073
I12892
sI13074
I12892
sI13075
I12892
sI13076
I12892
sI13077
I12720
sI13078
I12720
sI13079
I12720
sI13080
I12720
sI13081
I12720
sI13082
I12905
sI13083
I12905
sI13084
I12905
sI13085
I12905
sI13086
I13087
sI13088
I13087
sI13089
I12910
sI13090
I13091
sI13092
I13091
sI13093
I13091
sI13094
I13091
sI13095
I13091
sI13096
I13091
sI13097
I13635
sI13098
I13635
sI13099
I13635
sI13100
I12745
sI13101
I12745
sI13102
I12745
sI13103
I12745
sI13104
I12745
sI13105
I12745
sI13106
I12745
sI13107
I12747
sI13108
I12747
sI13109
I12747
sI13110
I13472
sI13111
I13472
sI13112
I13472
sI13113
I13472
sI13114
I13472
sI13115
I13472
sI13116
I12940
sI13117
I12940
sI13118
I12940
sI13119
I12940
sI13120
I12940
sI13121
I13122
sI13123
I13122
sI13124
I13303
sI13125
I13303
sI13126
I13129
sI13127
I13129
sI13128
I13129
sI13130
I13129
sI13131
I13132
sI13133
I13132
sI13134
I12954
sI13135
I12955
sI13136
I12957
sI13137
I12957
sI13138
I12958
sI13139
I12958
sI13140
I12958
sI13141
I12958
sI13142
I12958
sI13143
I12958
sI13144
I13865
sI13145
I13865
sI13146
I13691
sI13147
I13691
sI13148
I13691
sI13149
I13691
sI13150
I13514
sI13151
I13514
sI13152
I13514
sI13153
I13514
sI13154
I13157
sI13155
I13157
sI13156
I13157
sI13158
I13157
sI13159
I13157
sI13160
I12982
sI13161
I12982
sI13162
I12982
sI13163
I12982
sI13164
I12985
sI13165
I12985
sI13166
I12985
sI13167
I12985
sI13168
I12985
sI13169
I12985
sI13170
I13532
sI13171
I13532
sI13172
I13532
sI13173
I13532
sI13174
I13532
sI13175
I13532
sI13176
I13540
sI13177
I13540
sI13178
I13540
sI13179
I13540
sI13180
I13540
sI13181
I13184
sI13182
I13184
sI13183
I13184
sI13186
I13185
sI13187
I13007
sI13188
I13007
sI13189
I13007
sI13190
I13013
sI13191
I13013
sI13192
I13013
sI13193
I13013
sI13194
I13195
sI13197
I13196
sI13198
I13199
sI13200
I13199
sI13201
I13381
sI13202
I13203
sI13204
I13203
sI13205
I13385
sI13206
I13208
sI13207
I13208
sI13209
I13208
sI13211
I13210
sI13214
I13213
sI13218
I13217
sI13219
I13217
sI13220
I13402
sI13221
I13402
sI13222
I13402
sI13223
I13403
sI13224
I13404
sI13225
I13404
sI13226
I13228
sI13227
I13228
sI13229
I13228
sI13230
I13050
sI13231
I13232
sI13233
I13232
sI13234
I13232
sI13235
I13053
sI13236
I13053
sI13237
I12877
sI13238
I13597
sI13239
I13597
sI13240
I12882
sI13241
I12882
sI13242
I12882
sI13243
I12882
sI13244
I12882
sI13245
I13608
sI13246
I13608
sI13247
I13608
sI13248
I13608
sI13249
I13610
sI13250
I13610
sI13251
I12891
sI13252
I12892
sI13253
I12892
sI13254
I12892
sI13255
I12892
sI13256
I12892
sI13257
I13800
sI13258
I13800
sI13259
I13800
sI13260
I12720
sI13261
I13625
sI13262
I13625
sI13263
I13625
sI13264
I13087
sI13265
I13087
sI13266
I13087
sI13267
I13087
sI13268
I13448
sI13269
I13448
sI13270
I13091
sI13271
I13091
sI13272
I13091
sI13273
I13091
sI13274
I13091
sI13275
I13635
sI13276
I13635
sI13277
I13635
sI13278
I13635
sI13279
I13635
sI13280
I13820
sI13281
I13820
sI13282
I13820
sI13283
I12745
sI13284
I12745
sI13285
I12745
sI13286
I13650
sI13287
I13650
sI13288
I13650
sI13289
I13472
sI13290
I13472
sI13291
I13472
sI13292
I13472
sI13293
I13472
sI13294
I13472
sI13295
I13472
sI13296
I13479
sI13297
I13479
sI13298
I13479
sI13299
I13479
sI13300
I13479
sI13301
I13303
sI13302
I13303
sI13304
I13303
sI13305
I13485
sI13306
I13485
sI13307
I13309
sI13308
I13309
sI13310
I13309
sI13311
I13309
sI13312
I13132
sI13313
I13132
sI13314
I13132
sI13315
I13132
sI13316
I12957
sI13317
I12957
sI13318
I12958
sI13319
I12958
sI13320
I13855
sI13321
I12958
sI13322
I13865
sI13323
I13865
sI13324
I13865
sI13325
I13865
sI13326
I13865
sI13327
I13691
sI13328
I13691
sI13329
I13691
sI13330
I13691
sI13331
I13514
sI13332
I13514
sI13333
I13514
sI13334
I13514
sI13335
I13515
sI13336
I13515
sI13337
I13157
sI13338
I13157
sI13339
I13157
sI13340
I13157
sI13341
I12982
sI13342
I12982
sI13343
I12982
sI13344
I12985
sI13345
I12985
sI13346
I12985
sI13347
I12985
sI13348
I13532
sI13349
I13532
sI13350
I13532
sI13351
I13532
sI13352
I13532
sI13353
I13532
sI13354
I13532
sI13355
I13532
sI13356
I13540
sI13357
I13540
sI13358
I13540
sI13359
I13540
sI13360
I13540
sI13361
I13540
sI13362
I13540
sI13363
I13184
sI13364
I13184
sI13365
I13185
sI13366
I13185
sI13367
I13185
sI13368
I13185
sI13369
I13007
sI13370
I13013
sI13371
I13375
sI13372
I13375
sI13373
I13375
sI13374
I13375
sI13376
I13375
sI13377
I13557
sI13378
I13558
sI13379
I13380
sI13383
I13382
sI13384
I13385
sI13386
I13385
sI13387
I13388
sI13389
I13388
sI13390
I13210
sI13391
I13571
sI13392
I13572
sI13393
I13213
sI13394
I13574
sI13395
I13396
sI13397
I13396
sI13398
I13396
sI13399
I13217
sI13400
I13402
sI13401
I13402
sI13405
I13404
sI13406
I13404
sI13407
I13228
sI13408
I13228
sI13409
I13228
sI13410
I13228
sI13411
I13232
sI13412
I13232
sI13413
I13232
sI13414
I13232
sI13415
I13597
sI13416
I13597
sI13417
I13597
sI13418
I13597
sI13419
I13597
sI13420
I13597
sI13421
I13597
sI13422
I13597
sI13423
I13608
sI13424
I13608
sI13425
I13608
sI13426
I13608
sI13427
I13608
sI13428
I13608
sI13429
I13610
sI13430
I13610
sI13431
I13610
sI13432
I13610
sI13433
I13610
sI13434
I13610
sI13435
I13610
sI13436
I13800
sI13437
I13800
sI13438
I13800
sI13439
I13800
sI13440
I13800
sI13441
I13800
sI13442
I13625
sI13443
I13625
sI13444
I13625
sI13445
I13625
sI13446
I13448
sI13447
I13448
sI13449
I13448
sI13450
I13448
sI13451
I13448
sI13452
I13634
sI13453
I13634
sI13454
I13634
sI13455
I13635
sI13456
I13635
sI13457
I13635
sI13458
I13635
sI13459
I13819
sI13460
I13820
sI13461
I13820
sI13462
I13820
sI13463
I13820
sI13464
I13820
sI13465
I13650
sI13466
I13650
sI13467
I13650
sI13468
I13650
sI13469
I13650
sI13470
I13650
sI13471
I13472
sI13473
I13472
sI13474
I13472
sI13475
I13472
sI13476
I13479
sI13477
I13479
sI13478
I13479
sI13480
I13479
sI13481
I13479
sI13482
I13303
sI13483
I13303
sI13484
I13485
sI13486
I13485
sI13487
I13488
sI13489
I13488
sI13490
I13670
sI13491
I13670
sI13492
I13670
sI13493
I13670
sI13494
I13855
sI13495
I13855
sI13496
I13855
sI13497
I13855
sI13498
I13855
sI13499
I13855
sI13500
I13855
sI13501
I13865
sI13502
I13865
sI13503
I13865
sI13504
I13865
sI13505
I13865
sI13506
I13865
sI13507
I13691
sI13508
I13691
sI13509
I13691
sI13510
I13691
sI13511
I13691
sI13512
I13514
sI13513
I13514
sI13516
I13515
sI13517
I13515
sI13518
I13515
sI13519
I13515
sI13520
I13515
sI13521
I13157
sI13522
I12982
sI13523
I13887
sI13524
I13887
sI13525
I13887
sI13526
I13887
sI13527
I13887
sI13528
I13532
sI13529
I13532
sI13530
I13532
sI13531
I13532
sI13533
I13532
sI13534
I13532
sI13535
I13532
sI13536
I13540
sI13537
I13540
sI13538
I13540
sI13539
I13540
sI13541
I13540
sI13542
I13540
sI13543
I13540
sI13544
I13540
sI13545
I13185
sI13546
I13905
sI13547
I13905
sI13548
I13905
sI13549
I13905
sI13550
I13555
sI13551
I13555
sI13552
I13555
sI13553
I13555
sI13554
I13555
sI13559
I13558
sI13565
I13566
sI13568
I13569
sI13570
I13571
sI13573
I13572
sI13576
I13575
sI13577
I13575
sI13578
I13756
sI13579
I13760
sI13580
I13760
sI13581
I13760
sI13582
I13402
sI13583
I13403
sI13584
I13404
sI13585
I13404
sI13586
I13404
sI13587
I13404
sI13588
I13228
sI13589
I13228
sI13590
I13951
sI13591
I13951
sI13592
I13232
sI13593
I13597
sI13594
I13597
sI13595
I13597
sI13596
I13597
sI13598
I13597
sI13599
I13597
sI13600
I13597
sI13601
I13597
sI13602
I13597
sI13603
I13608
sI13604
I13608
sI13605
I13608
sI13606
I13608
sI13607
I13608
sI13609
I13610
sI13611
I13610
sI13612
I13610
sI13613
I13610
sI13614
I13610
sI13615
I13976
sI13616
I13976
sI13617
I13800
sI13618
I13800
sI13619
I13800
sI13620
I13800
sI13621
I13800
sI13622
I13800
sI13623
I13625
sI13624
I13625
sI13626
I13625
sI13627
I13625
sI13628
I13448
sI13629
I13448
sI13630
I13448
sI13631
I13634
sI13632
I13634
sI13633
I13634
sI13636
I13635
sI13637
I13635
sI13638
I13819
sI13639
I13819
sI13640
I13820
sI13641
I13820
sI13642
I13820
sI13643
I13820
sI13644
I14004
sI13645
I14005
sI13646
I13650
sI13647
I13650
sI13648
I13650
sI13649
I13650
sI13651
I13650
sI13652
I13650
sI13653
I13472
sI13654
I13472
sI13655
I13472
sI13656
I13659
sI13657
I13659
sI13658
I13659
sI13660
I13659
sI13661
I13659
sI13662
I13840
sI13663
I13485
sI13664
I13485
sI13665
I13485
sI13666
I13485
sI13667
I13848
sI13668
I13670
sI13669
I13670
sI13671
I13670
sI13672
I13670
sI13673
I13851
sI13674
I13855
sI13675
I13855
sI13676
I13855
sI13677
I13855
sI13678
I13855
sI13679
I13855
sI13680
I14040
sI13681
I14040
sI13682
I13865
sI13683
I13865
sI13684
I13865
sI13685
I13865
sI13686
I13865
sI13687
I13865
sI13688
I13691
sI13689
I13691
sI13690
I13691
sI13692
I13693
sI13694
I13693
sI13695
I13693
sI13696
I13515
sI13697
I13515
sI13698
I13515
sI13699
I13515
sI13700
I13515
sI13701
I13887
sI13702
I13887
sI13703
I13887
sI13704
I13887
sI13705
I13887
sI13706
I13887
sI13707
I13887
sI13708
I13887
sI13709
I13887
sI13710
I13532
sI13711
I13532
sI13712
I13532
sI13713
I13532
sI13714
I13532
sI13715
I13532
sI13716
I13540
sI13717
I13540
sI13718
I13540
sI13719
I13540
sI13720
I13540
sI13721
I13540
sI13722
I13903
sI13723
I13903
sI13724
I13904
sI13725
I13905
sI13726
I13905
sI13727
I13905
sI13728
I13905
sI13729
I14090
sI13730
I14090
sI13731
I14090
sI13732
I13915
sI13733
I13915
sI13734
I13915
sI13735
I13555
sI13736
I13738
sI13737
I13738
sI13743
I13742
sI13744
I13745
sI13746
I13745
sI13747
I13745
sI13748
I13749
sI13751
I13750
sI13752
I13750
sI13753
I13572
sI13754
I13756
sI13755
I13756
sI13757
I13756
sI13758
I13756
sI13759
I13760
sI13761
I13760
sI13762
I13760
sI13763
I13760
sI13764
I13760
sI13765
I14125
sI13766
I14125
sI13767
I13951
sI13768
I13951
sI13769
I13951
sI13770
I13951
sI13771
I13951
sI13772
I13951
sI13773
I13954
sI13774
I13954
sI13775
I13954
sI13776
I13597
sI13777
I13597
sI13778
I13597
sI13779
I13597
sI13780
I13597
sI13781
I13597
sI13782
I14139
sI13783
I13967
sI13784
I13967
sI13785
I13967
sI13786
I13967
sI13787
I13967
sI13788
I13608
sI13789
I13610
sI13790
I13610
sI13791
I13972
sI13792
I13972
sI13793
I13972
sI13794
I13976
sI13795
I13976
sI13796
I13976
sI13797
I13977
sI13798
I13800
sI13799
I13800
sI13801
I13800
sI13802
I13800
sI13803
I13805
sI13804
I13805
sI13806
I13805
sI13807
I13805
sI13808
I13989
sI13809
I13989
sI13810
I13989
sI13811
I13991
sI13812
I13991
sI13813
I13993
sI13814
I13816
sI13815
I13816
sI13817
I13816
sI13818
I13819
sI13821
I13820
sI13822
I13820
sI13823
I14003
sI13824
I14004
sI13825
I14005
sI13826
I14006
sI13827
I14006
sI13828
I14006
sI13829
I13650
sI13830
I13650
sI13831
I13650
sI13832
I13650
sI13833
I14015
sI13834
I14015
sI13835
I14015
sI13836
I14016
sI13837
I14017
sI13838
I13840
sI13839
I13840
sI13841
I13840
sI13842
I13840
sI13843
I14022
sI13844
I14022
sI13845
I13848
sI13846
I13848
sI13847
I13848
sI13849
I13848
sI13850
I13851
sI13852
I13851
sI13853
I13851
sI13854
I13855
sI13856
I13855
sI13857
I13855
sI13858
I13855
sI13859
I13855
sI13860
I14040
sI13861
I14040
sI13862
I14040
sI13863
I13865
sI13864
I13865
sI13866
I13865
sI13867
I13865
sI13868
I13865
sI13869
I13691
sI13870
I13691
sI13871
I13691
sI13872
I13693
sI13873
I13693
sI13874
I13693
sI13875
I13693
sI13876
I13693
sI13877
I13693
sI13878
I13515
sI13879
I13515
sI13880
I13887
sI13881
I13887
sI13882
I13887
sI13883
I13887
sI13884
I13887
sI13885
I13887
sI13886
I13887
sI13888
I13887
sI13889
I13887
sI13890
I13887
sI13891
I13887
sI13892
I13532
sI13893
I13532
sI13894
I13532
sI13895
I13532
sI13896
I14081
sI13897
I14081
sI13898
I14081
sI13899
I14081
sI13900
I14081
sI13901
I13903
sI13902
I13903
sI13906
I13905
sI13907
I13905
sI13908
I14087
sI13909
I14090
sI13910
I14090
sI13911
I14090
sI13912
I14090
sI13913
I13915
sI13914
I13915
sI13923
I13922
sI13924
I13925
sI13926
I13925
sI13927
I13925
sI13928
I13749
sI13929
I13749
sI13930
I13750
sI13931
I13750
sI13932
I13750
sI13933
I13750
sI13934
I13756
sI13935
I13756
sI13936
I13756
sI13937
I13756
sI13938
I13940
sI13939
I13940
sI13941
I13940
sI13942
I13940
sI13943
I14124
sI13944
I14124
sI13945
I14125
sI13946
I14125
sI13947
I14125
sI13948
I14129
sI13949
I13951
sI13950
I13951
sI13952
I13951
sI13953
I13954
sI13955
I13954
sI13956
I13954
sI13957
I14136
sI13958
I14138
sI13959
I14139
sI13960
I14139
sI13961
I14139
sI13962
I14139
sI13963
I14146
sI13964
I14146
sI13965
I13967
sI13966
I13967
sI13968
I13967
sI13969
I13967
sI13970
I13972
sI13971
I13972
sI13973
I13972
sI13974
I13976
sI13975
I13976
sI13978
I13977
sI13979
I13981
sI13980
I13981
sI13982
I13981
sI13983
I13985
sI13984
I13985
sI13987
I13986
sI13988
I13989
sI13990
I13989
sI13992
I13991
sI13998
I13999
sI14007
I14006
sI14008
I14006
sI14009
I14189
sI14010
I14190
sI14011
I14191
sI14012
I14192
sI14013
I14015
sI14014
I14015
sI14019
I14018
sI14023
I14022
sI14024
I14022
sI14025
I14203
sI14026
I13848
sI14027
I13848
sI14028
I14030
sI14029
I14030
sI14031
I14030
sI14032
I14030
sI14033
I14034
sI14035
I14034
sI14036
I14034
sI14037
I14215
sI14038
I14219
sI14039
I14219
sI14041
I14040
sI14042
I14040
sI14043
I14040
sI14044
I13865
sI14045
I13865
sI14046
I13865
sI14047
I13865
sI14048
I13865
sI14049
I13865
sI14050
I13691
sI14051
I13691
sI14052
I13693
sI14053
I13693
sI14054
I13693
sI14055
I13693
sI14056
I13693
sI14057
I13693
sI14058
I13693
sI14059
I13693
sI14060
I13887
sI14061
I13887
sI14062
I13887
sI14063
I13887
sI14064
I13887
sI14065
I13887
sI14066
I13887
sI14067
I13887
sI14068
I14248
sI14069
I14248
sI14070
I14248
sI14071
I14248
sI14072
I14248
sI14073
I14431
sI14074
I14431
sI14075
I14081
sI14076
I14081
sI14077
I14081
sI14078
I14081
sI14079
I14081
sI14080
I14081
sI14082
I14081
sI14083
I14081
sI14084
I13904
sI14085
I14087
sI14086
I14087
sI14088
I14087
sI14089
I14090
sI14091
I14090
sI14092
I14090
sI14093
I14095
sI14094
I14095
sI14100
I14099
sI14101
I14102
sI14103
I14104
sI14105
I14106
sI14107
I14106
sI14108
I14106
sI14109
I14106
sI14110
I14292
sI14111
I14292
sI14112
I14292
sI14113
I14293
sI14114
I14293
sI14115
I14293
sI14116
I14293
sI14117
I13940
sI14118
I13940
sI14119
I13940
sI14120
I13940
sI14121
I13940
sI14122
I14124
sI14123
I14124
sI14126
I14125
sI14127
I14125
sI14128
I14129
sI14130
I14129
sI14132
I14131
sI14134
I14133
sI14137
I14136
sI14140
I14139
sI14141
I14139
sI14142
I14322
sI14143
I14323
sI14144
I14146
sI14145
I14146
sI14147
I14146
sI14148
I14146
sI14149
I14151
sI14150
I14151
sI14167
I14166
sI14169
I14168
sI14204
I14203
sI14205
I14203
sI14206
I14386
sI14207
I14209
sI14208
I14209
sI14210
I14209
sI14214
I14213
sI14216
I14215
sI14217
I14215
sI14218
I14219
sI14221
I14220
sI14222
I14220
sI14223
I14404
sI14224
I14404
sI14225
I14404
sI14226
I14404
sI14227
I14404
sI14228
I14404
sI14229
I14404
sI14230
I14404
sI14231
I14404
sI14232
I14773
sI14233
I14773
sI14234
I14773
sI14235
I14776
sI14236
I14776
sI14237
I14777
sI14238
I14604
sI14239
I14604
sI14240
I14604
sI14241
I14604
sI14242
I14604
sI14243
I14248
sI14244
I14248
sI14245
I14248
sI14246
I14248
sI14247
I14248
sI14249
I14248
sI14250
I14248
sI14251
I14431
sI14252
I14431
sI14253
I14431
sI14254
I14431
sI14255
I14439
sI14256
I14439
sI14257
I14439
sI14258
I14439
sI14259
I14261
sI14260
I14261
sI14262
I14261
sI14263
I14264
sI14265
I14264
sI14266
I14264
sI14267
I14447
sI14268
I14447
sI14269
I14271
sI14270
I14271
sI14282
I14281
sI14283
I14281
sI14284
I14286
sI14285
I14286
sI14287
I14286
sI14288
I14286
sI14289
I14469
sI14290
I14292
sI14291
I14292
sI14294
I14293
sI14295
I14293
sI14296
I14477
sI14297
I14477
sI14298
I14477
sI14299
I14479
sI14300
I14479
sI14301
I14481
sI14302
I14304
sI14303
I14304
sI14307
I14306
sI14312
I14311
sI14318
I14317
sI14320
I14319
sI14321
I14322
sI14324
I14325
sI14333
I14332
sI14351
I14350
sI14352
I14353
sI14354
I14353
sI14355
I14353
sI14356
I14357
sI14359
I14358
sI14360
I14358
sI14361
I14181
sI14362
I14182
sI14363
I14183
sI14364
I14366
sI14365
I14366
sI14367
I14366
sI14368
I14370
sI14369
I14370
sI14371
I14370
sI14372
I14370
sI14373
I14375
sI14374
I14375
sI14376
I14375
sI14378
I14377
sI14379
I14377
sI14380
I14382
sI14381
I14382
sI14393
I14392
sI14394
I14392
sI14395
I14575
sI14396
I14576
sI14397
I14577
sI14398
I14220
sI14399
I14220
sI14401
I14400
sI14402
I14404
sI14403
I14404
sI14405
I14404
sI14406
I14404
sI14407
I14404
sI14408
I14404
sI14409
I14404
sI14410
I14771
sI14411
I14771
sI14412
I14771
sI14413
I14773
sI14414
I14773
sI14415
I14776
sI14416
I14776
sI14417
I14777
sI14418
I14778
sI14419
I14604
sI14420
I14604
sI14421
I14604
sI14422
I14604
sI14423
I14604
sI14424
I14604
sI14425
I14604
sI14426
I14606
sI14427
I14607
sI14428
I14248
sI14429
I14431
sI14430
I14431
sI14432
I14431
sI14433
I14431
sI14434
I14614
sI14435
I14614
sI14436
I14439
sI14437
I14439
sI14438
I14439
sI14442
I14441
sI14443
I14441
sI14444
I14264
sI14445
I14447
sI14446
I14447
sI14448
I14447
sI14449
I14447
sI14450
I14452
sI14451
I14452
sI14460
I14459
sI14461
I14459
sI14462
I14459
sI14463
I14645
sI14464
I14645
sI14465
I14645
sI14466
I14286
sI14467
I14469
sI14468
I14469
sI14470
I14469
sI14471
I14472
sI14474
I14473
sI14475
I14477
sI14476
I14477
sI14478
I14477
sI14480
I14479
sI14505
I14504
sI14506
I14507
sI14513
I14512
sI14514
I14515
sI14516
I14515
sI14517
I14515
sI14518
I14338
sI14519
I14521
sI14520
I14521
sI14527
I14526
sI14529
I14528
sI14530
I14528
sI14531
I14528
sI14532
I14712
sI14533
I14353
sI14534
I14714
sI14535
I14714
sI14536
I14357
sI14537
I14357
sI14538
I14358
sI14539
I14718
sI14540
I14718
sI14541
I14723
sI14542
I14545
sI14543
I14545
sI14544
I14545
sI14546
I14545
sI14547
I14545
sI14548
I14545
sI14549
I14370
sI14550
I14370
sI14551
I14731
sI14552
I14731
sI14553
I14731
sI14554
I14375
sI14555
I14375
sI14556
I14558
sI14557
I14558
sI14560
I14559
sI14561
I14559
sI14562
I14563
sI14565
I14564
sI14566
I14564
sI14567
I14569
sI14568
I14569
sI14581
I14580
sI14582
I14583
sI14584
I14583
sI14585
I14583
sI14586
I14583
sI14587
I14767
sI14588
I14768
sI14589
I14768
sI14590
I14771
sI14591
I14771
sI14592
I14773
sI14593
I14773
sI14594
I14773
sI14595
I14776
sI14596
I14776
sI14597
I14777
sI14598
I14778
sI14599
I14779
sI14600
I14780
sI14601
I14604
sI14602
I14604
sI14603
I14604
sI14605
I14604
sI14615
I14614
sI14616
I14617
sI14641
I14640
sI14642
I14640
sI14643
I14645
sI14644
I14645
sI14646
I14645
sI14648
I14647
sI14649
I14650
sI14651
I14650
sI14652
I14650
sI14653
I14654
sI14656
I14655
sI14657
I14658
sI14664
I14663
sI14686
I14685
sI14688
I14687
sI14689
I14690
sI14691
I14690
sI14692
I14690
sI14693
I14695
sI14694
I14695
sI14696
I14695
sI14697
I14695
sI14698
I14700
sI14699
I14700
sI14710
I14709
sI14711
I14712
sI14713
I14714
sI14715
I14714
sI14716
I14714
sI14717
I14718
sI14719
I14718
sI14720
I14718
sI14721
I14723
sI14722
I14723
sI14724
I14723
sI14725
I14723
sI14726
I14723
sI14727
I14545
sI14728
I14731
sI14729
I14731
sI14730
I14731
sI14732
I14731
sI14733
I14731
sI14734
I14731
sI14735
I14737
sI14736
I14737
sI14739
I14738
sI14740
I14738
sI14741
I14738
sI14742
I14922
sI14743
I14563
sI14744
I14564
sI14745
I14564
sI14746
I14749
sI14747
I14749
sI14748
I14749
sI14756
I14757
sI14760
I14939
sI14761
I14762
sI14763
I14762
sI14764
I14762
sI14765
I14767
sI14766
I14767
sI14769
I14768
sI14770
I14771
sI14772
I14773
sI14774
I14773
sI14775
I14776
sI14788
I14787
sI14801
I14800
sI14802
I14800
sI14803
I14800
sI14804
I14807
sI14805
I14807
sI14806
I14807
sI14820
I14821
sI14822
I14821
sI14823
I14821
sI14824
I14826
sI14825
I14826
sI14827
I14826
sI14828
I14826
sI14829
I14826
sI14830
I14833
sI14831
I14833
sI14832
I14833
sI14834
I14833
sI14841
I14840
sI14848
I14847
sI14849
I14850
sI14851
I14850
sI14852
I14850
sI14853
I14850
sI14854
I14674
sI14855
I14675
sI14856
I14676
sI14857
I14677
sI14858
I14678
sI14859
I14679
sI14860
I14680
sI14861
I14681
sI14862
I14682
sI14863
I14683
sI14864
I14684
sI14865
I14685
sI14866
I14685
sI14867
I14687
sI14868
I15048
sI14869
I15049
sI14870
I14690
sI14871
I14690
sI14872
I14876
sI14873
I14876
sI14874
I14876
sI14875
I14876
sI14877
I14876
sI14878
I14876
sI14879
I14881
sI14880
I14881
sI14885
I14884
sI14886
I14884
sI14887
I14888
sI14889
I14888
sI14890
I14888
sI14891
I14888
sI14892
I14895
sI14893
I14895
sI14894
I14895
sI14896
I14895
sI14897
I14898
sI14899
I14898
sI14900
I14898
sI14901
I14898
sI14902
I14904
sI14903
I14904
sI14905
I14904
sI14906
I14904
sI14907
I14910
sI14908
I14910
sI14909
I14910
sI14913
I14912
sI14914
I14912
sI14915
I14916
sI14917
I14916
sI14918
I14916
sI14919
I14916
sI14920
I14922
sI14921
I14922
sI14923
I14922
sI14924
I14922
sI14925
I14928
sI14926
I14928
sI14927
I14928
sI14935
I14934
sI14936
I14937
sI14938
I14937
sI14940
I15119
sI14941
I15119
sI14942
I14944
sI14943
I14944
sI14945
I14944
sI14964
I14963
sI14965
I14966
sI14968
I14967
sI14969
I14970
sI14972
I14971
sI14975
I14974
sI14976
I14974
sI14977
I14974
sI14978
I14974
sI14979
I14799
sI14980
I14800
sI14981
I14800
sI14982
I14986
sI14983
I14986
sI14984
I14986
sI14985
I14986
sI14997
I14996
sI14999
I14998
sI15000
I15002
sI15001
I15002
sI15003
I15002
sI15004
I15005
sI15007
I15006
sI15019
I15018
sI15020
I15018
sI15021
I15018
sI15022
I15018
sI15023
I14843
sI15024
I14844
sI15025
I14845
sI15026
I14846
sI15027
I14847
sI15028
I14847
sI15029
I14850
sI15030
I14850
sI15031
I14850
sI15032
I14850
sI15033
I14850
sI15034
I15218
sI15035
I15218
sI15036
I15218
sI15037
I15218
sI15038
I15218
sI15039
I15218
sI15040
I15218
sI15041
I15218
sI15042
I15218
sI15043
I15048
sI15044
I15048
sI15045
I15048
sI15046
I15048
sI15047
I15048
sI15050
I15049
sI15051
I15049
sI15052
I15049
sI15053
I15049
sI15054
I15235
sI15055
I15235
sI15056
I14876
sI15057
I14876
sI15058
I15062
sI15059
I15062
sI15060
I15062
sI15061
I15062
sI15063
I15062
sI15064
I15062
sI15065
I15062
sI15066
I15068
sI15067
I15068
sI15069
I15068
sI15070
I15068
sI15071
I15068
sI15072
I15068
sI15073
I15253
sI15074
I15253
sI15075
I14895
sI15076
I14895
sI15077
I14898
sI15078
I15082
sI15079
I15082
sI15080
I15082
sI15081
I15082
sI15084
I15083
sI15085
I15083
sI15086
I15083
sI15087
I15083
sI15088
I15092
sI15089
I15092
sI15090
I15092
sI15091
I15092
sI15093
I15092
sI15095
I15094
sI15096
I15094
sI15097
I15094
sI15098
I15094
sI15099
I15094
sI15100
I14922
sI15101
I14922
sI15102
I14922
sI15103
I14922
sI15104
I15108
sI15105
I15108
sI15106
I15108
sI15107
I15108
sI15117
I15116
sI15120
I15124
sI15121
I15124
sI15122
I15124
sI15123
I15124
sI15130
I15129
sI15134
I15133
sI15138
I15137
sI15139
I15137
sI15140
I15137
sI15141
I15145
sI15142
I15145
sI15143
I15145
sI15144
I15145
sI15146
I15145
sI15147
I15145
sI15148
I15145
sI15149
I15145
sI15150
I14970
sI15151
I14971
sI15152
I15332
sI15153
I15157
sI15154
I15157
sI15155
I15157
sI15156
I15157
sI15158
I15157
sI15159
I15157
sI15160
I15157
sI15161
I15164
sI15162
I15164
sI15163
I15164
sI15171
I15172
sI15173
I15172
sI15174
I15175
sI15177
I15176
sI15178
I15179
sI15180
I15179
sI15181
I15179
sI15182
I15179
sI15183
I15185
sI15184
I15185
sI15189
I15188
sI15193
I15192
sI15199
I15198
sI15200
I15198
sI15201
I15198
sI15202
I15198
sI15203
I15198
sI15204
I15198
sI15205
I15380
sI15206
I15380
sI15207
I15380
sI15208
I15380
sI15209
I15397
sI15210
I15218
sI15211
I15218
sI15212
I15218
sI15213
I15218
sI15214
I15218
sI15215
I15218
sI15216
I15218
sI15217
I15218
sI15219
I15218
sI15220
I15218
sI15221
I15218
sI15222
I15218
sI15223
I15402
sI15224
I15402
sI15225
I15230
sI15226
I15230
sI15227
I15230
sI15228
I15230
sI15229
I15230
sI15231
I15230
sI15232
I15230
sI15233
I15235
sI15234
I15235
sI15236
I15235
sI15237
I15235
sI15238
I15235
sI15239
I15235
sI15240
I15235
sI15241
I15062
sI15242
I15062
sI15243
I15062
sI15244
I15248
sI15245
I15248
sI15246
I15248
sI15247
I15248
sI15249
I15248
sI15250
I15248
sI15251
I15253
sI15252
I15253
sI15254
I15253
sI15255
I15253
sI15256
I15253
sI15257
I15253
sI15258
I15263
sI15259
I15263
sI15260
I15263
sI15261
I15263
sI15262
I15263
sI15264
I15263
sI15265
I15263
sI15266
I15263
sI15267
I15263
sI15268
I15263
sI15269
I15092
sI15270
I15092
sI15271
I15092
sI15272
I15092
sI15273
I15092
sI15274
I15094
sI15275
I15094
sI15276
I15094
sI15277
I15094
sI15278
I15094
sI15279
I15286
sI15280
I15286
sI15281
I15286
sI15282
I15286
sI15283
I15286
sI15284
I15286
sI15285
I15286
sI15295
I15294
sI15296
I15294
sI15297
I15294
sI15298
I15294
sI15299
I15119
sI15301
I15300
sI15303
I15302
sI15304
I15302
sI15305
I15302
sI15306
I15308
sI15307
I15308
sI15310
I15309
sI15311
I15309
sI15312
I15315
sI15313
I15315
sI15314
I15315
sI15316
I15315
sI15317
I15318
sI15321
I15322
sI15323
I15322
sI15324
I15322
sI15325
I15322
sI15326
I15322
sI15327
I15330
sI15328
I15330
sI15329
I15330
sI15331
I15330
sI15333
I15332
sI15334
I15332
sI15335
I15337
sI15336
I15337
sI15338
I15337
sI15339
I15337
sI15340
I15341
sI15342
I15341
sI15344
I15343
sI15351
I15350
sI15352
I15350
sI15353
I15355
sI15354
I15355
sI15356
I15355
sI15357
I15358
sI15360
I15361
sI15362
I15361
sI15363
I15365
sI15364
I15365
sI15366
I15365
sI15367
I15368
sI15371
I15370
sI15381
I15380
sI15382
I15380
sI15383
I15380
sI15384
I15380
sI15385
I15380
sI15386
I15380
sI15387
I15380
sI15388
I15574
sI15389
I15574
sI15390
I15574
sI15391
I15397
sI15392
I15397
sI15393
I15397
sI15394
I15397
sI15395
I15397
sI15396
I15397
sI15398
I15397
sI15399
I15397
sI15400
I15402
sI15401
I15402
sI15403
I15402
sI15404
I15402
sI15405
I15402
sI15406
I15402
sI15407
I15402
sI15408
I15587
sI15409
I15230
sI15410
I15230
sI15411
I15230
sI15412
I15230
sI15413
I15235
sI15414
I15235
sI15415
I15235
sI15416
I15597
sI15417
I15597
sI15418
I15597
sI15419
I15597
sI15420
I15597
sI15421
I15597
sI15422
I15428
sI15423
I15428
sI15424
I15428
sI15425
I15428
sI15426
I15428
sI15427
I15428
sI15429
I15428
sI15431
I15430
sI15433
I15432
sI15434
I15435
sI15436
I15435
sI15437
I15435
sI15438
I15441
sI15439
I15441
sI15440
I15441
sI15442
I15441
sI15443
I15441
sI15444
I15441
sI15445
I15441
sI15446
I15441
sI15447
I15441
sI15448
I15441
sI15449
I15441
sI15450
I15441
sI15451
I15441
sI15452
I15441
sI15453
I15092
sI15454
I15094
sI15455
I15466
sI15456
I15466
sI15457
I15466
sI15458
I15466
sI15459
I15466
sI15460
I15466
sI15461
I15466
sI15462
I15466
sI15463
I15466
sI15464
I15466
sI15465
I15466
sI15472
I15471
sI15473
I15471
sI15474
I15475
sI15476
I15475
sI15477
I15475
sI15478
I15300
sI15479
I15300
sI15480
I15483
sI15481
I15483
sI15482
I15483
sI15484
I15483
sI15485
I15483
sI15486
I15483
sI15487
I15483
sI15488
I15492
sI15489
I15492
sI15490
I15492
sI15491
I15492
sI15493
I15492
sI15494
I15492
sI15495
I15497
sI15496
I15497
sI15498
I15497
sI15499
I15497
sI15500
I15497
sI15501
I15505
sI15502
I15505
sI15503
I15505
sI15504
I15505
sI15506
I15505
sI15507
I15505
sI15508
I15505
sI15509
I15505
sI15510
I15505
sI15511
I15505
sI15512
I15517
sI15513
I15517
sI15514
I15517
sI15515
I15517
sI15516
I15517
sI15519
I15518
sI15520
I15518
sI15521
I15518
sI15522
I15525
sI15523
I15525
sI15524
I15525
sI15527
I15526
sI15528
I15526
sI15529
I15526
sI15530
I15532
sI15531
I15532
sI15533
I15532
sI15534
I15536
sI15535
I15536
sI15537
I15536
sI15539
I15538
sI15553
I15552
sI15554
I15552
sI15555
I15556
sI15557
I15556
sI15558
I15556
sI15559
I15556
sI15560
I15556
sI15561
I15556
sI15562
I15556
sI15563
I15556
sI15564
I15556
sI15565
I15556
sI15566
I15574
sI15567
I15574
sI15568
I15574
sI15569
I15574
sI15570
I15574
sI15571
I15574
sI15572
I15574
sI15573
I15574
sI15575
I15574
sI15576
I15574
sI15577
I15574
sI15578
I15574
sI15579
I15574
sI15580
I15574
sI15581
I15587
sI15582
I15587
sI15583
I15587
sI15584
I15587
sI15585
I15587
sI15586
I15587
sI15588
I15587
sI15589
I15587
sI15590
I15587
sI15591
I15587
sI15592
I15587
sI15593
I15597
sI15594
I15597
sI15595
I15597
sI15596
I15597
sI15598
I15597
sI15599
I15597
sI15600
I15597
sI15601
I15597
sI15602
I15597
sI15603
I15597
sI15604
I15597
sI15605
I15428
sI15606
I15428
sI15607
I15428
sI15608
I15428
sI15609
I15428
sI15610
I15430
sI15611
I15430
sI15612
I15432
sI15613
I15432
sI15614
I15435
sI15615
I15435
sI15616
I15435
sI15617
I15435
sI15618
I15441
sI15619
I15441
sI15620
I15441
sI15621
I15441
sI15622
I15441
sI15623
I15805
sI15624
I15805
sI15625
I15805
sI15626
I15805
sI15627
I15807
sI15628
I15808
sI15629
I15808
sI15630
I15808
sI15631
I15808
sI15632
I15808
sI15633
I15808
sI15634
I15808
sI15635
I15808
sI15636
I15808
sI15637
I15647
sI15638
I15647
sI15639
I15647
sI15640
I15647
sI15641
I15647
sI15642
I15647
sI15643
I15647
sI15644
I15647
sI15645
I15647
sI15646
I15647
sI15658
I15657
sI15659
I15657
sI15695
I15694
sI15696
I15694
sI15697
I15700
sI15698
I15700
sI15699
I15700
sI15708
I15707
sI15709
I15707
sI15710
I15707
sI15711
I15715
sI15712
I15715
sI15713
I15715
sI15714
I15715
sI15720
I15721
sI15724
I15723
sI15726
I15725
sI15727
I15725
sI15728
I15731
sI15729
I15731
sI15730
I15731
sI15732
I15731
sI15733
I15731
sI15734
I15731
sI15735
I15731
sI15736
I15731
sI15737
I15731
sI15738
I15731
sI15739
I15731
sI15740
I15731
sI15741
I15731
sI15742
I15731
sI15743
I15731
sI15744
I15731
sI15745
I15731
sI15746
I15574
sI15747
I15574
sI15748
I15574
sI15749
I15574
sI15750
I15574
sI15751
I15574
sI15752
I15574
sI15753
I15574
sI15754
I15574
sI15755
I15574
sI15756
I15574
sI15757
I15574
sI15758
I15574
sI15759
I15574
sI15760
I15574
sI15761
I15587
sI15762
I15587
sI15763
I15587
sI15764
I15587
sI15765
I15587
sI15766
I15587
sI15767
I15587
sI15768
I15587
sI15769
I15587
sI15770
I15587
sI15771
I15587
sI15772
I15587
sI15773
I15597
sI15774
I15597
sI15775
I15597
sI15776
I15597
sI15777
I15597
sI15778
I15597
sI15779
I15597
sI15780
I15597
sI15781
I15597
sI15782
I15597
sI15783
I15597
sI15784
I15597
sI15785
I15597
sI15786
I15597
sI15787
I15597
sI15788
I15597
sI15789
I15805
sI15790
I15805
sI15791
I15805
sI15792
I15805
sI15793
I15805
sI15794
I15805
sI15795
I15805
sI15796
I15805
sI15797
I15805
sI15798
I15805
sI15799
I15805
sI15800
I15805
sI15801
I15805
sI15802
I15805
sI15803
I15805
sI15804
I15805
sI15806
I15805
sI15809
I15808
sI15810
I15808
sI15811
I15808
sI15812
I15808
sI15813
I15808
sI15814
I15808
sI15815
I15808
sI15816
I15808
sI15817
I15808
sI15818
I15808
sI15819
I15829
sI15820
I15829
sI15821
I15829
sI15822
I15829
sI15823
I15829
sI15824
I15829
sI15825
I15829
sI15826
I15829
sI15827
I15829
sI15828
I15829
sI15840
I15846
sI15841
I15846
sI15842
I15846
sI15843
I15846
sI15844
I15846
sI15845
I15846
sI15858
I15857
sI15860
I15859
sI15862
I15861
sI15868
I15867
sI15869
I15867
sI15870
I15867
sI15871
I15867
sI15872
I15867
sI15873
I15877
sI15874
I15877
sI15875
I15877
sI15876
I15877
sI15878
I15877
sI15879
I15877
sI15880
I15877
sI15881
I15877
sI15882
I15877
sI15883
I15877
sI15884
I15877
sI15885
I15877
sI15886
I15877
sI15887
I15877
sI15888
I15877
sI15889
I15877
sI15890
I15877
sI15891
I15877
sI15892
I16076
sI15893
I16076
sI15894
I15715
sI15895
I15715
sI15896
I16076
sI15897
I15717
sI15898
I15718
sI15899
I15719
sI15900
I15721
sI15901
I15721
sI15902
I15722
sI15903
I15723
sI15904
I15723
sI15905
I15725
sI15906
I15725
sI15907
I15725
sI15908
I15725
sI15909
I15731
sI15910
I15731
sI15911
I15731
sI15912
I15731
sI15913
I15731
sI15914
I15731
sI15915
I15731
sI15916
I15731
sI15917
I15731
sI15918
I16110
sI15919
I16110
sI15920
I16110
sI15921
I16110
sI15922
I16110
sI15923
I16110
sI15924
I16110
sI15925
I16110
sI15926
I16110
sI15927
I16110
sI15928
I16110
sI15929
I16110
sI15930
I16110
sI15931
I16110
sI15932
I16110
sI15933
I16110
sI15934
I16110
sI15935
I16110
sI15936
I16110
sI15937
I16110
sI15938
I16110
sI15939
I16110
sI15940
I16110
sI15941
I16110
sI15942
I16110
sI15943
I16110
sI15944
I16110
sI15945
I16110
sI15946
I16110
sI15947
I16110
sI15948
I16110
sI15949
I16110
sI15950
I16110
sI15951
I16110
sI15952
I16110
sI15953
I16110
sI15954
I16110
sI15955
I16110
sI15956
I16110
sI15957
I16110
sI15958
I16110
sI15959
I16110
sI15960
I16110
sI15961
I16110
sI15962
I16110
sI15963
I16110
sI15964
I16110
sI15965
I16179
sI15966
I16179
sI15967
I16179
sI15968
I15805
sI15969
I15805
sI15970
I15805
sI15971
I15805
sI15972
I15805
sI15973
I15805
sI15974
I15805
sI15975
I15805
sI15976
I15805
sI15977
I15805
sI15978
I15805
sI15979
I15805
sI15980
I15805
sI15981
I15805
sI15982
I15805
sI15983
I15805
sI15984
I15805
sI15985
I15805
sI15986
I15805
sI15987
I15807
sI15988
I15808
sI15989
I15808
sI15990
I15808
sI15991
I15808
sI15992
I15808
sI15993
I16179
sI15994
I16179
sI15995
I16179
sI15996
I16179
sI15997
I16179
sI15998
I16179
sI15999
I16179
sI16000
I16179
sI16001
I16179
sI16002
I16179
sI16003
I16179
sI16004
I16179
sI16005
I16179
sI16006
I15829
sI16007
I15829
sI16008
I15829
sI16009
I15829
sI16010
I15830
sI16011
I15831
sI16012
I15846
sI16013
I15846
sI16014
I15846
sI16015
I15846
sI16016
I15846
sI16017
I15846
sI16018
I15846
sI16019
I15846
sI16020
I16021
sI16022
I16021
sI16023
I16021
sI16024
I16021
sI16025
I16021
sI16026
I16021
sI16027
I16021
sI16028
I16021
sI16029
I16021
sI16030
I16021
sI16031
I16021
sI16032
I16021
sI16033
I16021
sI16034
I16021
sI16035
I16021
sI16036
I16021
sI16037
I16021
sI16038
I16021
sI16039
I16021
sI16040
I16021
sI16041
I16021
sI16042
I16021
sI16043
I16021
sI16044
I16021
sI16045
I16021
sI16046
I16021
sI16047
I16021
sI16048
I16021
sI16049
I16076
sI16050
I16076
sI16051
I16076
sI16052
I16076
sI16053
I16076
sI16054
I16076
sI16055
I16076
sI16056
I16076
sI16057
I16076
sI16058
I16076
sI16059
I16076
sI16060
I16076
sI16061
I16076
sI16062
I16076
sI16063
I16076
sI16064
I16076
sI16065
I16076
sI16066
I16076
sI16067
I16076
sI16068
I16076
sI16069
I16076
sI16070
I16076
sI16071
I16076
sI16072
I16076
sI16073
I16076
sI16074
I16076
sI16075
I16076
sI16077
I16076
sI16078
I16076
sI16079
I16076
sI16080
I16076
sI16081
I16076
sI16082
I16076
sI16083
I16076
sI16084
I16076
sI16085
I16076
sI16086
I16076
sI16087
I16076
sI16088
I16076
sI16089
I16076
sI16090
I16076
sI16091
I16076
sI16092
I16076
sI16093
I16076
sI16094
I16110
sI16095
I16110
sI16096
I16110
sI16097
I16110
sI16098
I16110
sI16099
I16110
sI16100
I16110
sI16101
I16110
sI16102
I16110
sI16103
I16110
sI16104
I16110
sI16105
I16110
sI16106
I16110
sI16107
I16110
sI16108
I16110
sI16109
I16110
sI16111
I16110
sI16112
I16110
sI16113
I16110
sI16114
I16110
sI16115
I16110
sI16116
I16110
sI16117
I16110
sI16118
I16110
sI16119
I16110
sI16120
I16110
sI16121
I16110
sI16122
I16110
sI16123
I16110
sI16124
I16110
sI16125
I16110
sI16126
I16110
sI16127
I16110
sI16128
I16110
sI16129
I16110
sI16130
I16110
sI16131
I16110
sI16132
I16110
sI16133
I16110
sI16134
I16110
sI16135
I16110
sI16136
I16110
sI16137
I16110
sI16138
I16110
sI16139
I16110
sI16140
I16110
sI16141
I16110
sI16142
I16110
sI16143
I16110
sI16144
I16110
sI16145
I16179
sI16146
I16179
sI16147
I16179
sI16148
I16179
sI16149
I16179
sI16150
I16179
sI16151
I16179
sI16152
I16179
sI16153
I16179
sI16154
I16179
sI16155
I16179
sI16156
I16179
sI16157
I16179
sI16158
I16179
sI16159
I16179
sI16160
I16179
sI16161
I16179
sI16162
I16179
sI16163
I16179
sI16164
I16179
sI16165
I16179
sI16166
I16179
sI16167
I16179
sI16168
I16179
sI16169
I16179
sI16170
I16179
sI16171
I16179
sI16172
I16179
sI16173
I16179
sI16174
I16179
sI16175
I16179
sI16176
I16179
sI16177
I16179
sI16178
I16179
sI16180
I16179
sI16181
I16179
sI16182
I16179
sI16183
I16179
sI16184
I16179
sI16185
I16179
sI16186
I16179
sI16187
I16179
sI16188
I16179
sI16189
I16179
sI16190
I16179
sI16191
I16021
sI16192
I16021
sI16193
I16021
sI16194
I16021
sI16195
I16021
sI16196
I16021
sI16197
I16021
sI16198
I16021
sI16199
I16021
s.