(dp1
I90
I0
sI112
I1
sI290
I2
sI301
I3
sI310
I4
sI315
I5
sI340
I6
sI355
I7
sI360
I8
sI387
I9
sI393
I10
sI395
I11
sI450
I12
sI456
I13
sI459
I14
sI460
I15
sI485
I16
sI487
I17
sI492
I18
sI496
I19
sI497
I20
sI508
I21
sI525
I22
sI526
I23
sI528
I24
sI532
I25
sI541
I26
sI550
I27
sI553
I28
sI556
I29
sI557
I30
sI560
I31
sI562
I32
sI563
I33
sI570
I34
sI585
I35
sI586
I36
sI587
I37
sI588
I38
sI589
I39
sI590
I40
sI591
I41
sI592
I42
sI593
I43
sI594
I44
sI595
I45
sI596
I46
sI597
I47
sI598
I48
sI599
I49
sI600
I50
sI601
I51
sI602
I52
sI603
I53
sI604
I54
sI605
I55
sI606
I56
sI607
I57
sI608
I58
sI609
I59
sI610
I60
sI611
I61
sI612
I62
sI613
I63
sI614
I64
sI615
I65
sI616
I66
sI617
I67
sI618
I68
sI619
I69
sI620
I70
sI621
I71
sI625
I72
sI647
I73
sI665
I74
sI666
I75
sI669
I76
sI676
I77
sI682
I78
sI684
I79
sI686
I80
sI689
I81
sI715
I82
sI725
I83
sI728
I84
sI732
I85
sI754
I86
sI759
I87
sI760
I88
sI761
I89
sI762
I90
sI763
I91
sI764
I92
sI765
I93
sI766
I94
sI767
I95
sI768
I96
sI769
I97
sI770
I98
sI771
I99
sI772
I100
sI773
I101
sI774
I102
sI775
I103
sI776
I104
sI777
I105
sI778
I106
sI779
I107
sI780
I108
sI781
I109
sI782
I110
sI783
I111
sI784
I112
sI785
I113
sI786
I114
sI787
I115
sI788
I116
sI791
I117
sI792
I118
sI793
I119
sI794
I120
sI795
I121
sI796
I122
sI797
I123
sI798
I124
sI799
I125
sI800
I126
sI801
I127
sI802
I128
sI803
I129
sI805
I130
sI809
I131
sI812
I132
sI815
I133
sI816
I134
sI817
I135
sI818
I136
sI819
I137
sI820
I138
sI821
I139
sI822
I140
sI823
I141
sI825
I142
sI826
I143
sI828
I144
sI829
I145
sI830
I146
sI832
I147
sI833
I148
sI834
I149
sI835
I150
sI836
I151
sI837
I152
sI838
I153
sI839
I154
sI840
I155
sI841
I156
sI842
I157
sI849
I158
sI855
I159
sI856
I160
sI857
I161
sI858
I162
sI859
I163
sI868
I164
sI890
I165
sI894
I166
sI901
I167
sI905
I168
sI911
I169
sI917
I170
sI920
I171
sI933
I172
sI934
I173
sI935
I174
sI936
I175
sI937
I176
sI938
I177
sI939
I178
sI940
I179
sI941
I180
sI942
I181
sI943
I182
sI944
I183
sI945
I184
sI946
I185
sI947
I186
sI948
I187
sI949
I188
sI950
I189
sI951
I190
sI952
I191
sI953
I192
sI954
I193
sI955
I194
sI956
I195
sI957
I196
sI958
I197
sI959
I198
sI961
I199
sI965
I200
sI978
I201
sI979
I202
sI980
I203
sI981
I204
sI982
I205
sI985
I206
sI988
I207
sI989
I208
sI990
I209
sI992
I210
sI994
I211
sI995
I212
sI996
I213
sI997
I214
sI998
I215
sI999
I216
sI1000
I217
sI1001
I218
sI1002
I219
sI1003
I220
sI1004
I221
sI1005
I222
sI1014
I223
sI1015
I224
sI1019
I225
sI1025
I226
sI1028
I227
sI1029
I228
sI1031
I229
sI1032
I230
sI1035
I231
sI1036
I232
sI1037
I233
sI1038
I234
sI1039
I235
sI1040
I236
sI1041
I237
sI1042
I238
sI1043
I239
sI1084
I240
sI1087
I241
sI1092
I242
sI1108
I243
sI1109
I244
sI1110
I245
sI1111
I246
sI1112
I247
sI1113
I248
sI1114
I249
sI1115
I250
sI1116
I251
sI1117
I252
sI1118
I253
sI1119
I254
sI1120
I255
sI1121
I256
sI1122
I257
sI1123
I258
sI1124
I259
sI1125
I260
sI1126
I261
sI1127
I262
sI1128
I263
sI1129
I264
sI1130
I265
sI1131
I266
sI1132
I267
sI1133
I268
sI1134
I269
sI1135
I270
sI1136
I271
sI1137
I272
sI1138
I273
sI1139
I274
sI1156
I275
sI1157
I276
sI1158
I277
sI1159
I278
sI1160
I279
sI1161
I280
sI1167
I281
sI1170
I282
sI1172
I283
sI1173
I284
sI1174
I285
sI1175
I286
sI1176
I287
sI1177
I288
sI1178
I289
sI1179
I290
sI1180
I291
sI1181
I292
sI1182
I293
sI1183
I294
sI1186
I295
sI1188
I296
sI1199
I297
sI1200
I298
sI1201
I299
sI1202
I300
sI1203
I301
sI1204
I302
sI1211
I303
sI1214
I304
sI1215
I305
sI1216
I306
sI1217
I307
sI1218
I308
sI1219
I309
sI1220
I310
sI1221
I311
sI1222
I312
sI1223
I313
sI1224
I314
sI1225
I315
sI1226
I316
sI1231
I317
sI1239
I318
sI1240
I319
sI1241
I320
sI1244
I321
sI1246
I322
sI1248
I323
sI1249
I324
sI1269
I325
sI1271
I326
sI1284
I327
sI1286
I328
sI1287
I329
sI1288
I330
sI1289
I331
sI1290
I332
sI1291
I333
sI1292
I334
sI1293
I335
sI1294
I336
sI1295
I337
sI1296
I338
sI1297
I339
sI1298
I340
sI1299
I341
sI1300
I342
sI1301
I343
sI1302
I344
sI1303
I345
sI1304
I346
sI1305
I347
sI1306
I348
sI1307
I349
sI1308
I350
sI1309
I351
sI1310
I352
sI1313
I353
sI1316
I354
sI1317
I355
sI1319
I356
sI1320
I357
sI1321
I358
sI1322
I359
sI1328
I360
sI1335
I361
sI1336
I362
sI1337
I363
sI1338
I364
sI1339
I365
sI1340
I366
sI1341
I367
sI1342
I368
sI1345
I369
sI1348
I370
sI1350
I371
sI1351
I372
sI1353
I373
sI1355
I374
sI1357
I375
sI1358
I376
sI1359
I377
sI1360
I378
sI1361
I379
sI1362
I380
sI1363
I381
sI1364
I382
sI1368
I383
sI1369
I384
sI1377
I385
sI1378
I386
sI1379
I387
sI1380
I388
sI1381
I389
sI1382
I390
sI1388
I391
sI1389
I392
sI1390
I393
sI1391
I394
sI1392
I395
sI1393
I396
sI1394
I397
sI1395
I398
sI1396
I399
sI1397
I400
sI1398
I401
sI1399
I402
sI1400
I403
sI1401
I404
sI1402
I405
sI1403
I406
sI1404
I407
sI1405
I408
sI1406
I409
sI1408
I410
sI1410
I411
sI1411
I412
sI1413
I413
sI1416
I414
sI1417
I415
sI1418
I416
sI1419
I417
sI1420
I418
sI1421
I419
sI1422
I420
sI1423
I421
sI1424
I422
sI1425
I423
sI1426
I424
sI1439
I425
sI1450
I426
sI1453
I427
sI1460
I428
sI1461
I429
sI1463
I430
sI1467
I431
sI1468
I432
sI1469
I433
sI1470
I434
sI1471
I435
sI1472
I436
sI1473
I437
sI1474
I438
sI1475
I439
sI1476
I440
sI1477
I441
sI1478
I442
sI1479
I443
sI1480
I444
sI1481
I445
sI1482
I446
sI1483
I447
sI1484
I448
sI1485
I449
sI1486
I450
sI1487
I451
sI1488
I452
sI1489
I453
sI1490
I454
sI1491
I455
sI1492
I456
sI1495
I457
sI1496
I458
sI1501
I459
sI1502
I460
sI1503
I461
sI1504
I462
sI1510
I463
sI1514
I464
sI1515
I465
sI1516
I466
sI1517
I467
sI1518
I468
sI1519
I469
sI1520
I470
sI1525
I471
sI1527
I472
sI1529
I473
sI1531
I474
sI1532
I475
sI1538
I476
sI1539
I477
sI1542
I478
sI1543
I479
sI1547
I480
sI1548
I481
sI1551
I482
sI1555
I483
sI1556
I484
sI1557
I485
sI1558
I486
sI1559
I487
sI1560
I488
sI1564
I489
sI1565
I490
sI1566
I491
sI1567
I492
sI1568
I493
sI1569
I494
sI1570
I495
sI1571
I496
sI1572
I497
sI1573
I498
sI1574
I499
sI1575
I500
sI1576
I501
sI1577
I502
sI1578
I503
sI1579
I504
sI1580
I505
sI1581
I506
sI1582
I507
sI1583
I508
sI1584
I509
sI1585
I510
sI1586
I511
sI1587
I512
sI1588
I513
sI1589
I514
sI1590
I515
sI1591
I516
sI1592
I517
sI1593
I518
sI1594
I519
sI1596
I520
sI1598
I521
sI1599
I522
sI1600
I523
sI1601
I524
sI1602
I525
sI1603
I526
sI1604
I527
sI1608
I528
sI1613
I529
sI1620
I530
sI1621
I531
sI1622
I532
sI1624
I533
sI1628
I534
sI1629
I535
sI1630
I536
sI1631
I537
sI1632
I538
sI1633
I539
sI1634
I540
sI1635
I541
sI1636
I542
sI1637
I543
sI1638
I544
sI1644
I545
sI1645
I546
sI1646
I547
sI1647
I548
sI1648
I549
sI1649
I550
sI1650
I551
sI1651
I552
sI1652
I553
sI1653
I554
sI1654
I555
sI1655
I556
sI1656
I557
sI1657
I558
sI1658
I559
sI1659
I560
sI1660
I561
sI1661
I562
sI1662
I563
sI1663
I564
sI1664
I565
sI1665
I566
sI1666
I567
sI1667
I568
sI1668
I569
sI1669
I570
sI1670
I571
sI1671
I572
sI1672
I573
sI1673
I574
sI1674
I575
sI1675
I576
sI1676
I577
sI1682
I578
sI1683
I579
sI1684
I580
sI1685
I581
sI1690
I582
sI1695
I583
sI1696
I584
sI1697
I585
sI1698
I586
sI1699
I587
sI1703
I588
sI1705
I589
sI1706
I590
sI1717
I591
sI1719
I592
sI1720
I593
sI1721
I594
sI1722
I595
sI1723
I596
sI1724
I597
sI1725
I598
sI1726
I599
sI1728
I600
sI1731
I601
sI1733
I602
sI1735
I603
sI1736
I604
sI1737
I605
sI1738
I606
sI1739
I607
sI1740
I608
sI1743
I609
sI1744
I610
sI1745
I611
sI1746
I612
sI1747
I613
sI1748
I614
sI1749
I615
sI1750
I616
sI1751
I617
sI1752
I618
sI1753
I619
sI1754
I620
sI1755
I621
sI1756
I622
sI1757
I623
sI1758
I624
sI1759
I625
sI1760
I626
sI1761
I627
sI1762
I628
sI1763
I629
sI1764
I630
sI1765
I631
sI1766
I632
sI1767
I633
sI1768
I634
sI1769
I635
sI1770
I636
sI1771
I637
sI1772
I638
sI1773
I639
sI1774
I640
sI1775
I641
sI1776
I642
sI1777
I643
sI1778
I644
sI1779
I645
sI1780
I646
sI1781
I647
sI1782
I648
sI1783
I649
sI1784
I650
sI1785
I651
sI1786
I652
sI1787
I653
sI1788
I654
sI1789
I655
sI1790
I656
sI1791
I657
sI1794
I658
sI1795
I659
sI1799
I660
sI1800
I661
sI1801
I662
sI1803
I663
sI1804
I664
sI1806
I665
sI1807
I666
sI1808
I667
sI1809
I668
sI1810
I669
sI1811
I670
sI1812
I671
sI1813
I672
sI1814
I673
sI1815
I674
sI1816
I675
sI1817
I676
sI1818
I677
sI1819
I678
sI1820
I679
sI1821
I680
sI1822
I681
sI1823
I682
sI1824
I683
sI1825
I684
sI1826
I685
sI1827
I686
sI1828
I687
sI1829
I688
sI1830
I689
sI1831
I690
sI1832
I691
sI1833
I692
sI1834
I693
sI1835
I694
sI1836
I695
sI1837
I696
sI1838
I697
sI1839
I698
sI1840
I699
sI1841
I700
sI1842
I701
sI1843
I702
sI1844
I703
sI1845
I704
sI1846
I705
sI1847
I706
sI1848
I707
sI1849
I708
sI1850
I709
sI1851
I710
sI1852
I711
sI1853
I712
sI1854
I713
sI1855
I714
sI1856
I715
sI1857
I716
sI1862
I717
sI1863
I718
sI1864
I719
sI1865
I720
sI1866
I721
sI1872
I722
sI1873
I723
sI1874
I724
sI1875
I725
sI1876
I726
sI1877
I727
sI1878
I728
sI1879
I729
sI1880
I730
sI1881
I731
sI1884
I732
sI1886
I733
sI1887
I734
sI1892
I735
sI1896
I736
sI1897
I737
sI1898
I738
sI1899
I739
sI1900
I740
sI1901
I741
sI1902
I742
sI1903
I743
sI1904
I744
sI1905
I745
sI1906
I746
sI1907
I747
sI1908
I748
sI1909
I749
sI1911
I750
sI1912
I751
sI1913
I752
sI1914
I753
sI1915
I754
sI1916
I755
sI1917
I756
sI1918
I757
sI1919
I758
sI1920
I759
sI1921
I760
sI1922
I761
sI1923
I762
sI1924
I763
sI1925
I764
sI1926
I765
sI1927
I766
sI1928
I767
sI1929
I768
sI1930
I769
sI1931
I770
sI1932
I771
sI1933
I772
sI1934
I773
sI1935
I774
sI1936
I775
sI1937
I776
sI1938
I777
sI1939
I778
sI1940
I779
sI1941
I780
sI1942
I781
sI1943
I782
sI1944
I783
sI1945
I784
sI1946
I785
sI1947
I786
sI1948
I787
sI1949
I788
sI1950
I789
sI1951
I790
sI1952
I791
sI1953
I792
sI1954
I793
sI1955
I794
sI1956
I795
sI1957
I796
sI1958
I797
sI1959
I798
sI1960
I799
sI1961
I800
sI1962
I801
sI1963
I802
sI1964
I803
sI1965
I804
sI1966
I805
sI1967
I806
sI1968
I807
sI1969
I808
sI1970
I809
sI1971
I810
sI1972
I811
sI1973
I812
sI1974
I813
sI1975
I814
sI1976
I815
sI1977
I816
sI1978
I817
sI1979
I818
sI1980
I819
sI1981
I820
sI1982
I821
sI1983
I822
sI1984
I823
sI1985
I824
sI1986
I825
sI1987
I826
sI1988
I827
sI1989
I828
sI1990
I829
sI1991
I830
sI1992
I831
sI1993
I832
sI1994
I833
sI1995
I834
sI1996
I835
sI1997
I836
sI1998
I837
sI1999
I838
sI2000
I839
sI2001
I840
sI2002
I841
sI2003
I842
sI2004
I843
sI2005
I844
sI2006
I845
sI2007
I846
sI2008
I847
sI2009
I848
sI2010
I849
sI2011
I850
sI2012
I851
sI2013
I852
sI2014
I853
sI2015
I854
sI2016
I855
sI2017
I856
sI2018
I857
sI2019
I858
sI2020
I859
sI2021
I860
sI2022
I861
sI2023
I862
sI2024
I863
sI2025
I864
sI2026
I865
sI2027
I866
sI2028
I867
sI2029
I868
sI2031
I869
sI2032
I870
sI2033
I871
sI2034
I872
sI2035
I873
sI2036
I874
sI2037
I875
sI2038
I876
sI2039
I877
sI2042
I878
sI2043
I879
sI2044
I880
sI2045
I881
sI2046
I882
sI2050
I883
sI2051
I884
sI2052
I885
sI2053
I886
sI2054
I887
sI2056
I888
sI2057
I889
sI2058
I890
sI2059
I891
sI2060
I892
sI2061
I893
sI2062
I894
sI2063
I895
sI2068
I896
sI2069
I897
sI2072
I898
sI2074
I899
sI2075
I900
sI2076
I901
sI2077
I902
sI2078
I903
sI2079
I904
sI2080
I905
sI2081
I906
sI2082
I907
sI2083
I908
sI2084
I909
sI2085
I910
sI2086
I911
sI2087
I912
sI2088
I913
sI2089
I914
sI2090
I915
sI2091
I916
sI2092
I917
sI2093
I918
sI2094
I919
sI2095
I920
sI2096
I921
sI2097
I922
sI2098
I923
sI2099
I924
sI2100
I925
sI2101
I926
sI2102
I927
sI2103
I928
sI2104
I929
sI2105
I930
sI2106
I931
sI2107
I932
sI2108
I933
sI2109
I934
sI2110
I935
sI2111
I936
sI2112
I937
sI2113
I938
sI2114
I939
sI2115
I940
sI2116
I941
sI2117
I942
sI2118
I943
sI2119
I944
sI2120
I945
sI2121
I946
sI2122
I947
sI2123
I948
sI2124
I949
sI2125
I950
sI2126
I951
sI2127
I952
sI2128
I953
sI2129
I954
sI2130
I955
sI2131
I956
sI2132
I957
sI2133
I958
sI2134
I959
sI2135
I960
sI2136
I961
sI2137
I962
sI2138
I963
sI2139
I964
sI2140
I965
sI2141
I966
sI2142
I967
sI2143
I968
sI2144
I969
sI2145
I970
sI2146
I971
sI2147
I972
sI2148
I973
sI2149
I974
sI2150
I975
sI2151
I976
sI2152
I977
sI2153
I978
sI2154
I979
sI2155
I980
sI2156
I981
sI2157
I982
sI2158
I983
sI2159
I984
sI2160
I985
sI2161
I986
sI2162
I987
sI2163
I988
sI2164
I989
sI2165
I990
sI2166
I991
sI2167
I992
sI2168
I993
sI2169
I994
sI2170
I995
sI2171
I996
sI2172
I997
sI2173
I998
sI2174
I999
sI2175
I1000
sI2176
I1001
sI2177
I1002
sI2178
I1003
sI2179
I1004
sI2180
I1005
sI2181
I1006
sI2182
I1007
sI2183
I1008
sI2184
I1009
sI2185
I1010
sI2186
I1011
sI2187
I1012
sI2188
I1013
sI2189
I1014
sI2190
I1015
sI2191
I1016
sI2192
I1017
sI2193
I1018
sI2194
I1019
sI2195
I1020
sI2196
I1021
sI2197
I1022
sI2198
I1023
sI2199
I1024
sI2200
I1025
sI2201
I1026
sI2202
I1027
sI2203
I1028
sI2204
I1029
sI2205
I1030
sI2206
I1031
sI2207
I1032
sI2208
I1033
sI2209
I1034
sI2210
I1035
sI2211
I1036
sI2212
I1037
sI2213
I1038
sI2214
I1039
sI2215
I1040
sI2216
I1041
sI2217
I1042
sI2218
I1043
sI2221
I1044
sI2223
I1045
sI2224
I1046
sI2225
I1047
sI2228
I1048
sI2229
I1049
sI2230
I1050
sI2231
I1051
sI2232
I1052
sI2236
I1053
sI2237
I1054
sI2238
I1055
sI2239
I1056
sI2240
I1057
sI2241
I1058
sI2242
I1059
sI2243
I1060
sI2246
I1061
sI2247
I1062
sI2251
I1063
sI2253
I1064
sI2254
I1065
sI2255
I1066
sI2256
I1067
sI2257
I1068
sI2258
I1069
sI2259
I1070
sI2260
I1071
sI2261
I1072
sI2262
I1073
sI2263
I1074
sI2264
I1075
sI2265
I1076
sI2266
I1077
sI2267
I1078
sI2268
I1079
sI2269
I1080
sI2270
I1081
sI2271
I1082
sI2272
I1083
sI2273
I1084
sI2274
I1085
sI2275
I1086
sI2276
I1087
sI2277
I1088
sI2278
I1089
sI2279
I1090
sI2280
I1091
sI2281
I1092
sI2282
I1093
sI2283
I1094
sI2284
I1095
sI2285
I1096
sI2286
I1097
sI2287
I1098
sI2288
I1099
sI2289
I1100
sI2290
I1101
sI2291
I1102
sI2292
I1103
sI2293
I1104
sI2294
I1105
sI2295
I1106
sI2296
I1107
sI2297
I1108
sI2298
I1109
sI2299
I1110
sI2300
I1111
sI2301
I1112
sI2302
I1113
sI2303
I1114
sI2304
I1115
sI2305
I1116
sI2306
I1117
sI2307
I1118
sI2308
I1119
sI2309
I1120
sI2310
I1121
sI2311
I1122
sI2312
I1123
sI2313
I1124
sI2314
I1125
sI2315
I1126
sI2316
I1127
sI2317
I1128
sI2318
I1129
sI2319
I1130
sI2320
I1131
sI2321
I1132
sI2322
I1133
sI2323
I1134
sI2324
I1135
sI2325
I1136
sI2326
I1137
sI2327
I1138
sI2328
I1139
sI2329
I1140
sI2330
I1141
sI2331
I1142
sI2332
I1143
sI2333
I1144
sI2334
I1145
sI2335
I1146
sI2336
I1147
sI2337
I1148
sI2338
I1149
sI2339
I1150
sI2341
I1151
sI2343
I1152
sI2344
I1153
sI2345
I1154
sI2346
I1155
sI2347
I1156
sI2348
I1157
sI2349
I1158
sI2350
I1159
sI2351
I1160
sI2352
I1161
sI2353
I1162
sI2354
I1163
sI2355
I1164
sI2356
I1165
sI2357
I1166
sI2358
I1167
sI2359
I1168
sI2360
I1169
sI2361
I1170
sI2362
I1171
sI2363
I1172
sI2364
I1173
sI2365
I1174
sI2366
I1175
sI2367
I1176
sI2368
I1177
sI2369
I1178
sI2370
I1179
sI2371
I1180
sI2372
I1181
sI2373
I1182
sI2374
I1183
sI2375
I1184
sI2376
I1185
sI2377
I1186
sI2378
I1187
sI2379
I1188
sI2380
I1189
sI2381
I1190
sI2382
I1191
sI2383
I1192
sI2384
I1193
sI2385
I1194
sI2386
I1195
sI2387
I1196
sI2388
I1197
sI2389
I1198
sI2390
I1199
sI2391
I1200
sI2392
I1201
sI2393
I1202
sI2394
I1203
sI2395
I1204
sI2396
I1205
sI2397
I1206
sI2398
I1207
sI2401
I1208
sI2403
I1209
sI2404
I1210
sI2405
I1211
sI2406
I1212
sI2408
I1213
sI2409
I1214
sI2410
I1215
sI2411
I1216
sI2412
I1217
sI2413
I1218
sI2417
I1219
sI2418
I1220
sI2419
I1221
sI2420
I1222
sI2421
I1223
sI2422
I1224
sI2425
I1225
sI2426
I1226
sI2427
I1227
sI2432
I1228
sI2433
I1229
sI2434
I1230
sI2435
I1231
sI2436
I1232
sI2437
I1233
sI2438
I1234
sI2439
I1235
sI2440
I1236
sI2441
I1237
sI2442
I1238
sI2443
I1239
sI2444
I1240
sI2445
I1241
sI2446
I1242
sI2447
I1243
sI2448
I1244
sI2449
I1245
sI2450
I1246
sI2451
I1247
sI2452
I1248
sI2453
I1249
sI2454
I1250
sI2455
I1251
sI2456
I1252
sI2457
I1253
sI2458
I1254
sI2459
I1255
sI2460
I1256
sI2461
I1257
sI2462
I1258
sI2463
I1259
sI2464
I1260
sI2465
I1261
sI2466
I1262
sI2467
I1263
sI2468
I1264
sI2469
I1265
sI2470
I1266
sI2471
I1267
sI2472
I1268
sI2473
I1269
sI2474
I1270
sI2475
I1271
sI2476
I1272
sI2477
I1273
sI2478
I1274
sI2479
I1275
sI2480
I1276
sI2481
I1277
sI2482
I1278
sI2483
I1279
sI2484
I1280
sI2485
I1281
sI2486
I1282
sI2487
I1283
sI2488
I1284
sI2489
I1285
sI2490
I1286
sI2491
I1287
sI2492
I1288
sI2493
I1289
sI2494
I1290
sI2495
I1291
sI2496
I1292
sI2497
I1293
sI2498
I1294
sI2499
I1295
sI2500
I1296
sI2501
I1297
sI2502
I1298
sI2503
I1299
sI2504
I1300
sI2505
I1301
sI2506
I1302
sI2507
I1303
sI2508
I1304
sI2509
I1305
sI2510
I1306
sI2511
I1307
sI2512
I1308
sI2513
I1309
sI2514
I1310
sI2515
I1311
sI2516
I1312
sI2517
I1313
sI2518
I1314
sI2519
I1315
sI2523
I1316
sI2526
I1317
sI2527
I1318
sI2528
I1319
sI2529
I1320
sI2530
I1321
sI2531
I1322
sI2532
I1323
sI2533
I1324
sI2534
I1325
sI2535
I1326
sI2536
I1327
sI2537
I1328
sI2538
I1329
sI2539
I1330
sI2540
I1331
sI2541
I1332
sI2542
I1333
sI2543
I1334
sI2544
I1335
sI2545
I1336
sI2546
I1337
sI2547
I1338
sI2548
I1339
sI2549
I1340
sI2550
I1341
sI2551
I1342
sI2552
I1343
sI2553
I1344
sI2554
I1345
sI2555
I1346
sI2556
I1347
sI2557
I1348
sI2558
I1349
sI2559
I1350
sI2560
I1351
sI2561
I1352
sI2562
I1353
sI2563
I1354
sI2567
I1355
sI2570
I1356
sI2571
I1357
sI2572
I1358
sI2573
I1359
sI2574
I1360
sI2575
I1361
sI2576
I1362
sI2577
I1363
sI2585
I1364
sI2586
I1365
sI2587
I1366
sI2588
I1367
sI2590
I1368
sI2592
I1369
sI2596
I1370
sI2600
I1371
sI2603
I1372
sI2604
I1373
sI2605
I1374
sI2606
I1375
sI2607
I1376
sI2608
I1377
sI2609
I1378
sI2610
I1379
sI2611
I1380
sI2612
I1381
sI2613
I1382
sI2614
I1383
sI2615
I1384
sI2616
I1385
sI2617
I1386
sI2618
I1387
sI2619
I1388
sI2620
I1389
sI2621
I1390
sI2622
I1391
sI2623
I1392
sI2624
I1393
sI2625
I1394
sI2626
I1395
sI2627
I1396
sI2628
I1397
sI2629
I1398
sI2630
I1399
sI2631
I1400
sI2632
I1401
sI2633
I1402
sI2634
I1403
sI2635
I1404
sI2636
I1405
sI2637
I1406
sI2638
I1407
sI2639
I1408
sI2640
I1409
sI2641
I1410
sI2642
I1411
sI2643
I1412
sI2644
I1413
sI2645
I1414
sI2646
I1415
sI2647
I1416
sI2648
I1417
sI2649
I1418
sI2650
I1419
sI2651
I1420
sI2652
I1421
sI2653
I1422
sI2654
I1423
sI2655
I1424
sI2656
I1425
sI2657
I1426
sI2658
I1427
sI2659
I1428
sI2660
I1429
sI2661
I1430
sI2662
I1431
sI2663
I1432
sI2664
I1433
sI2665
I1434
sI2666
I1435
sI2667
I1436
sI2668
I1437
sI2669
I1438
sI2670
I1439
sI2671
I1440
sI2672
I1441
sI2673
I1442
sI2674
I1443
sI2675
I1444
sI2676
I1445
sI2677
I1446
sI2678
I1447
sI2679
I1448
sI2680
I1449
sI2681
I1450
sI2682
I1451
sI2683
I1452
sI2684
I1453
sI2685
I1454
sI2686
I1455
sI2687
I1456
sI2688
I1457
sI2689
I1458
sI2690
I1459
sI2691
I1460
sI2692
I1461
sI2693
I1462
sI2694
I1463
sI2695
I1464
sI2696
I1465
sI2697
I1466
sI2699
I1467
sI2701
I1468
sI2702
I1469
sI2706
I1470
sI2707
I1471
sI2708
I1472
sI2709
I1473
sI2710
I1474
sI2711
I1475
sI2712
I1476
sI2713
I1477
sI2714
I1478
sI2715
I1479
sI2716
I1480
sI2717
I1481
sI2718
I1482
sI2719
I1483
sI2720
I1484
sI2721
I1485
sI2722
I1486
sI2723
I1487
sI2724
I1488
sI2725
I1489
sI2726
I1490
sI2727
I1491
sI2728
I1492
sI2729
I1493
sI2730
I1494
sI2731
I1495
sI2732
I1496
sI2733
I1497
sI2734
I1498
sI2735
I1499
sI2736
I1500
sI2737
I1501
sI2738
I1502
sI2739
I1503
sI2740
I1504
sI2741
I1505
sI2742
I1506
sI2743
I1507
sI2749
I1508
sI2750
I1509
sI2751
I1510
sI2752
I1511
sI2753
I1512
sI2754
I1513
sI2755
I1514
sI2756
I1515
sI2757
I1516
sI2758
I1517
sI2759
I1518
sI2767
I1519
sI2768
I1520
sI2769
I1521
sI2781
I1522
sI2783
I1523
sI2784
I1524
sI2785
I1525
sI2786
I1526
sI2787
I1527
sI2788
I1528
sI2789
I1529
sI2790
I1530
sI2791
I1531
sI2792
I1532
sI2793
I1533
sI2794
I1534
sI2795
I1535
sI2796
I1536
sI2797
I1537
sI2798
I1538
sI2799
I1539
sI2800
I1540
sI2801
I1541
sI2802
I1542
sI2803
I1543
sI2804
I1544
sI2805
I1545
sI2806
I1546
sI2807
I1547
sI2808
I1548
sI2809
I1549
sI2810
I1550
sI2811
I1551
sI2812
I1552
sI2813
I1553
sI2814
I1554
sI2815
I1555
sI2816
I1556
sI2817
I1557
sI2818
I1558
sI2819
I1559
sI2820
I1560
sI2821
I1561
sI2822
I1562
sI2823
I1563
sI2824
I1564
sI2825
I1565
sI2826
I1566
sI2827
I1567
sI2828
I1568
sI2829
I1569
sI2830
I1570
sI2831
I1571
sI2832
I1572
sI2833
I1573
sI2834
I1574
sI2835
I1575
sI2836
I1576
sI2837
I1577
sI2838
I1578
sI2839
I1579
sI2840
I1580
sI2841
I1581
sI2842
I1582
sI2843
I1583
sI2844
I1584
sI2845
I1585
sI2846
I1586
sI2847
I1587
sI2848
I1588
sI2849
I1589
sI2850
I1590
sI2851
I1591
sI2852
I1592
sI2853
I1593
sI2854
I1594
sI2855
I1595
sI2856
I1596
sI2857
I1597
sI2858
I1598
sI2859
I1599
sI2860
I1600
sI2861
I1601
sI2862
I1602
sI2863
I1603
sI2864
I1604
sI2865
I1605
sI2866
I1606
sI2867
I1607
sI2868
I1608
sI2869
I1609
sI2870
I1610
sI2871
I1611
sI2872
I1612
sI2873
I1613
sI2875
I1614
sI2879
I1615
sI2882
I1616
sI2883
I1617
sI2884
I1618
sI2885
I1619
sI2889
I1620
sI2890
I1621
sI2891
I1622
sI2892
I1623
sI2893
I1624
sI2895
I1625
sI2896
I1626
sI2897
I1627
sI2898
I1628
sI2901
I1629
sI2902
I1630
sI2903
I1631
sI2904
I1632
sI2905
I1633
sI2906
I1634
sI2907
I1635
sI2908
I1636
sI2909
I1637
sI2910
I1638
sI2911
I1639
sI2912
I1640
sI2913
I1641
sI2914
I1642
sI2915
I1643
sI2916
I1644
sI2917
I1645
sI2918
I1646
sI2919
I1647
sI2920
I1648
sI2921
I1649
sI2922
I1650
sI2923
I1651
sI2924
I1652
sI2925
I1653
sI2926
I1654
sI2930
I1655
sI2931
I1656
sI2932
I1657
sI2933
I1658
sI2934
I1659
sI2935
I1660
sI2936
I1661
sI2937
I1662
sI2938
I1663
sI2939
I1664
sI2940
I1665
sI2942
I1666
sI2947
I1667
sI2950
I1668
sI2953
I1669
sI2955
I1670
sI2956
I1671
sI2957
I1672
sI2958
I1673
sI2959
I1674
sI2961
I1675
sI2962
I1676
sI2963
I1677
sI2964
I1678
sI2965
I1679
sI2966
I1680
sI2967
I1681
sI2968
I1682
sI2969
I1683
sI2970
I1684
sI2971
I1685
sI2972
I1686
sI2973
I1687
sI2974
I1688
sI2975
I1689
sI2976
I1690
sI2977
I1691
sI2978
I1692
sI2979
I1693
sI2980
I1694
sI2981
I1695
sI2982
I1696
sI2983
I1697
sI2984
I1698
sI2985
I1699
sI2986
I1700
sI2987
I1701
sI2988
I1702
sI2989
I1703
sI2990
I1704
sI2991
I1705
sI2992
I1706
sI2993
I1707
sI2994
I1708
sI2995
I1709
sI2996
I1710
sI2997
I1711
sI2998
I1712
sI2999
I1713
sI3000
I1714
sI3001
I1715
sI3002
I1716
sI3003
I1717
sI3004
I1718
sI3005
I1719
sI3006
I1720
sI3007
I1721
sI3008
I1722
sI3009
I1723
sI3010
I1724
sI3011
I1725
sI3012
I1726
sI3013
I1727
sI3014
I1728
sI3015
I1729
sI3016
I1730
sI3017
I1731
sI3018
I1732
sI3019
I1733
sI3020
I1734
sI3021
I1735
sI3022
I1736
sI3023
I1737
sI3024
I1738
sI3025
I1739
sI3026
I1740
sI3027
I1741
sI3028
I1742
sI3029
I1743
sI3030
I1744
sI3031
I1745
sI3032
I1746
sI3033
I1747
sI3034
I1748
sI3035
I1749
sI3036
I1750
sI3037
I1751
sI3038
I1752
sI3039
I1753
sI3040
I1754
sI3041
I1755
sI3047
I1756
sI3048
I1757
sI3049
I1758
sI3050
I1759
sI3051
I1760
sI3054
I1761
sI3055
I1762
sI3058
I1763
sI3063
I1764
sI3064
I1765
sI3065
I1766
sI3066
I1767
sI3067
I1768
sI3068
I1769
sI3069
I1770
sI3070
I1771
sI3071
I1772
sI3072
I1773
sI3073
I1774
sI3074
I1775
sI3075
I1776
sI3076
I1777
sI3077
I1778
sI3078
I1779
sI3079
I1780
sI3080
I1781
sI3081
I1782
sI3082
I1783
sI3083
I1784
sI3084
I1785
sI3085
I1786
sI3086
I1787
sI3087
I1788
sI3088
I1789
sI3089
I1790
sI3090
I1791
sI3091
I1792
sI3092
I1793
sI3093
I1794
sI3094
I1795
sI3095
I1796
sI3096
I1797
sI3097
I1798
sI3098
I1799
sI3099
I1800
sI3100
I1801
sI3101
I1802
sI3102
I1803
sI3103
I1804
sI3104
I1805
sI3105
I1806
sI3106
I1807
sI3107
I1808
sI3108
I1809
sI3109
I1810
sI3110
I1811
sI3111
I1812
sI3112
I1813
sI3113
I1814
sI3114
I1815
sI3115
I1816
sI3116
I1817
sI3117
I1818
sI3118
I1819
sI3119
I1820
sI3120
I1821
sI3121
I1822
sI3122
I1823
sI3127
I1824
sI3137
I1825
sI3139
I1826
sI3140
I1827
sI3143
I1828
sI3144
I1829
sI3145
I1830
sI3146
I1831
sI3147
I1832
sI3148
I1833
sI3149
I1834
sI3150
I1835
sI3151
I1836
sI3152
I1837
sI3153
I1838
sI3154
I1839
sI3155
I1840
sI3156
I1841
sI3157
I1842
sI3158
I1843
sI3159
I1844
sI3160
I1845
sI3161
I1846
sI3162
I1847
sI3163
I1848
sI3164
I1849
sI3165
I1850
sI3166
I1851
sI3167
I1852
sI3168
I1853
sI3169
I1854
sI3170
I1855
sI3171
I1856
sI3172
I1857
sI3173
I1858
sI3174
I1859
sI3175
I1860
sI3176
I1861
sI3177
I1862
sI3178
I1863
sI3179
I1864
sI3180
I1865
sI3181
I1866
sI3182
I1867
sI3183
I1868
sI3184
I1869
sI3185
I1870
sI3186
I1871
sI3187
I1872
sI3188
I1873
sI3189
I1874
sI3190
I1875
sI3191
I1876
sI3192
I1877
sI3193
I1878
sI3194
I1879
sI3195
I1880
sI3196
I1881
sI3197
I1882
sI3198
I1883
sI3199
I1884
sI3200
I1885
sI3201
I1886
sI3202
I1887
sI3203
I1888
sI3204
I1889
sI3205
I1890
sI3206
I1891
sI3207
I1892
sI3208
I1893
sI3209
I1894
sI3210
I1895
sI3211
I1896
sI3212
I1897
sI3213
I1898
sI3214
I1899
sI3215
I1900
sI3216
I1901
sI3217
I1902
sI3218
I1903
sI3219
I1904
sI3220
I1905
sI3221
I1906
sI3222
I1907
sI3225
I1908
sI3226
I1909
sI3227
I1910
sI3228
I1911
sI3229
I1912
sI3230
I1913
sI3231
I1914
sI3232
I1915
sI3233
I1916
sI3234
I1917
sI3237
I1918
sI3238
I1919
sI3239
I1920
sI3240
I1921
sI3241
I1922
sI3242
I1923
sI3243
I1924
sI3244
I1925
sI3245
I1926
sI3246
I1927
sI3248
I1928
sI3249
I1929
sI3252
I1930
sI3254
I1931
sI3255
I1932
sI3256
I1933
sI3257
I1934
sI3258
I1935
sI3261
I1936
sI3262
I1937
sI3263
I1938
sI3264
I1939
sI3265
I1940
sI3266
I1941
sI3267
I1942
sI3268
I1943
sI3269
I1944
sI3270
I1945
sI3271
I1946
sI3272
I1947
sI3273
I1948
sI3274
I1949
sI3275
I1950
sI3276
I1951
sI3277
I1952
sI3278
I1953
sI3279
I1954
sI3280
I1955
sI3281
I1956
sI3282
I1957
sI3283
I1958
sI3284
I1959
sI3285
I1960
sI3286
I1961
sI3287
I1962
sI3288
I1963
sI3289
I1964
sI3290
I1965
sI3291
I1966
sI3292
I1967
sI3293
I1968
sI3294
I1969
sI3295
I1970
sI3296
I1971
sI3297
I1972
sI3298
I1973
sI3299
I1974
sI3300
I1975
sI3301
I1976
sI3302
I1977
sI3306
I1978
sI3312
I1979
sI3314
I1980
sI3321
I1981
sI3323
I1982
sI3324
I1983
sI3325
I1984
sI3326
I1985
sI3327
I1986
sI3328
I1987
sI3329
I1988
sI3330
I1989
sI3331
I1990
sI3332
I1991
sI3333
I1992
sI3334
I1993
sI3335
I1994
sI3336
I1995
sI3337
I1996
sI3338
I1997
sI3339
I1998
sI3340
I1999
sI3341
I2000
sI3342
I2001
sI3343
I2002
sI3344
I2003
sI3345
I2004
sI3346
I2005
sI3347
I2006
sI3348
I2007
sI3349
I2008
sI3350
I2009
sI3351
I2010
sI3352
I2011
sI3353
I2012
sI3354
I2013
sI3355
I2014
sI3356
I2015
sI3357
I2016
sI3358
I2017
sI3359
I2018
sI3360
I2019
sI3361
I2020
sI3362
I2021
sI3363
I2022
sI3364
I2023
sI3365
I2024
sI3366
I2025
sI3367
I2026
sI3368
I2027
sI3369
I2028
sI3370
I2029
sI3371
I2030
sI3372
I2031
sI3373
I2032
sI3374
I2033
sI3375
I2034
sI3376
I2035
sI3377
I2036
sI3378
I2037
sI3379
I2038
sI3380
I2039
sI3381
I2040
sI3382
I2041
sI3383
I2042
sI3384
I2043
sI3385
I2044
sI3386
I2045
sI3387
I2046
sI3388
I2047
sI3389
I2048
sI3390
I2049
sI3391
I2050
sI3392
I2051
sI3393
I2052
sI3394
I2053
sI3395
I2054
sI3396
I2055
sI3397
I2056
sI3398
I2057
sI3399
I2058
sI3400
I2059
sI3401
I2060
sI3402
I2061
sI3403
I2062
sI3404
I2063
sI3407
I2064
sI3408
I2065
sI3409
I2066
sI3410
I2067
sI3412
I2068
sI3413
I2069
sI3415
I2070
sI3416
I2071
sI3417
I2072
sI3418
I2073
sI3419
I2074
sI3420
I2075
sI3421
I2076
sI3422
I2077
sI3423
I2078
sI3424
I2079
sI3425
I2080
sI3428
I2081
sI3429
I2082
sI3430
I2083
sI3431
I2084
sI3435
I2085
sI3437
I2086
sI3438
I2087
sI3439
I2088
sI3440
I2089
sI3441
I2090
sI3443
I2091
sI3444
I2092
sI3445
I2093
sI3446
I2094
sI3447
I2095
sI3448
I2096
sI3449
I2097
sI3450
I2098
sI3451
I2099
sI3452
I2100
sI3453
I2101
sI3454
I2102
sI3455
I2103
sI3456
I2104
sI3457
I2105
sI3458
I2106
sI3459
I2107
sI3460
I2108
sI3461
I2109
sI3462
I2110
sI3463
I2111
sI3464
I2112
sI3465
I2113
sI3466
I2114
sI3467
I2115
sI3468
I2116
sI3469
I2117
sI3470
I2118
sI3471
I2119
sI3472
I2120
sI3473
I2121
sI3474
I2122
sI3475
I2123
sI3476
I2124
sI3477
I2125
sI3478
I2126
sI3479
I2127
sI3480
I2128
sI3481
I2129
sI3482
I2130
sI3483
I2131
sI3484
I2132
sI3486
I2133
sI3487
I2134
sI3489
I2135
sI3499
I2136
sI3504
I2137
sI3505
I2138
sI3506
I2139
sI3507
I2140
sI3508
I2141
sI3509
I2142
sI3510
I2143
sI3511
I2144
sI3512
I2145
sI3513
I2146
sI3514
I2147
sI3515
I2148
sI3516
I2149
sI3517
I2150
sI3518
I2151
sI3519
I2152
sI3520
I2153
sI3521
I2154
sI3522
I2155
sI3523
I2156
sI3524
I2157
sI3525
I2158
sI3526
I2159
sI3527
I2160
sI3528
I2161
sI3529
I2162
sI3530
I2163
sI3531
I2164
sI3532
I2165
sI3533
I2166
sI3534
I2167
sI3535
I2168
sI3536
I2169
sI3537
I2170
sI3538
I2171
sI3539
I2172
sI3540
I2173
sI3541
I2174
sI3542
I2175
sI3543
I2176
sI3544
I2177
sI3545
I2178
sI3546
I2179
sI3547
I2180
sI3548
I2181
sI3549
I2182
sI3550
I2183
sI3551
I2184
sI3552
I2185
sI3553
I2186
sI3554
I2187
sI3555
I2188
sI3556
I2189
sI3557
I2190
sI3558
I2191
sI3559
I2192
sI3560
I2193
sI3561
I2194
sI3562
I2195
sI3563
I2196
sI3564
I2197
sI3565
I2198
sI3566
I2199
sI3567
I2200
sI3568
I2201
sI3569
I2202
sI3570
I2203
sI3571
I2204
sI3572
I2205
sI3573
I2206
sI3574
I2207
sI3575
I2208
sI3576
I2209
sI3577
I2210
sI3578
I2211
sI3579
I2212
sI3580
I2213
sI3581
I2214
sI3584
I2215
sI3585
I2216
sI3587
I2217
sI3588
I2218
sI3589
I2219
sI3590
I2220
sI3591
I2221
sI3592
I2222
sI3593
I2223
sI3596
I2224
sI3597
I2225
sI3598
I2226
sI3599
I2227
sI3603
I2228
sI3609
I2229
sI3610
I2230
sI3611
I2231
sI3612
I2232
sI3613
I2233
sI3621
I2234
sI3622
I2235
sI3623
I2236
sI3624
I2237
sI3625
I2238
sI3626
I2239
sI3627
I2240
sI3628
I2241
sI3629
I2242
sI3630
I2243
sI3631
I2244
sI3632
I2245
sI3633
I2246
sI3634
I2247
sI3635
I2248
sI3636
I2249
sI3637
I2250
sI3638
I2251
sI3639
I2252
sI3640
I2253
sI3641
I2254
sI3642
I2255
sI3643
I2256
sI3644
I2257
sI3645
I2258
sI3646
I2259
sI3647
I2260
sI3648
I2261
sI3649
I2262
sI3650
I2263
sI3651
I2264
sI3652
I2265
sI3653
I2266
sI3654
I2267
sI3655
I2268
sI3656
I2269
sI3657
I2270
sI3658
I2271
sI3659
I2272
sI3660
I2273
sI3661
I2274
sI3662
I2275
sI3663
I2276
sI3666
I2277
sI3672
I2278
sI3675
I2279
sI3676
I2280
sI3681
I2281
sI3682
I2282
sI3683
I2283
sI3684
I2284
sI3685
I2285
sI3686
I2286
sI3687
I2287
sI3688
I2288
sI3689
I2289
sI3690
I2290
sI3691
I2291
sI3692
I2292
sI3693
I2293
sI3694
I2294
sI3695
I2295
sI3696
I2296
sI3697
I2297
sI3698
I2298
sI3699
I2299
sI3700
I2300
sI3701
I2301
sI3702
I2302
sI3703
I2303
sI3704
I2304
sI3705
I2305
sI3706
I2306
sI3707
I2307
sI3708
I2308
sI3709
I2309
sI3710
I2310
sI3711
I2311
sI3712
I2312
sI3713
I2313
sI3714
I2314
sI3715
I2315
sI3716
I2316
sI3717
I2317
sI3718
I2318
sI3719
I2319
sI3720
I2320
sI3721
I2321
sI3722
I2322
sI3723
I2323
sI3724
I2324
sI3725
I2325
sI3726
I2326
sI3727
I2327
sI3728
I2328
sI3729
I2329
sI3730
I2330
sI3731
I2331
sI3732
I2332
sI3733
I2333
sI3734
I2334
sI3735
I2335
sI3736
I2336
sI3737
I2337
sI3738
I2338
sI3739
I2339
sI3740
I2340
sI3741
I2341
sI3742
I2342
sI3743
I2343
sI3744
I2344
sI3745
I2345
sI3746
I2346
sI3747
I2347
sI3748
I2348
sI3749
I2349
sI3750
I2350
sI3751
I2351
sI3752
I2352
sI3753
I2353
sI3754
I2354
sI3755
I2355
sI3756
I2356
sI3757
I2357
sI3758
I2358
sI3759
I2359
sI3760
I2360
sI3761
I2361
sI3762
I2362
sI3765
I2363
sI3766
I2364
sI3767
I2365
sI3768
I2366
sI3774
I2367
sI3777
I2368
sI3779
I2369
sI3789
I2370
sI3791
I2371
sI3797
I2372
sI3798
I2373
sI3800
I2374
sI3801
I2375
sI3802
I2376
sI3803
I2377
sI3804
I2378
sI3805
I2379
sI3806
I2380
sI3807
I2381
sI3808
I2382
sI3809
I2383
sI3810
I2384
sI3811
I2385
sI3812
I2386
sI3813
I2387
sI3814
I2388
sI3815
I2389
sI3816
I2390
sI3817
I2391
sI3818
I2392
sI3819
I2393
sI3820
I2394
sI3821
I2395
sI3822
I2396
sI3823
I2397
sI3824
I2398
sI3825
I2399
sI3826
I2400
sI3827
I2401
sI3828
I2402
sI3829
I2403
sI3830
I2404
sI3831
I2405
sI3832
I2406
sI3833
I2407
sI3834
I2408
sI3835
I2409
sI3836
I2410
sI3837
I2411
sI3838
I2412
sI3839
I2413
sI3840
I2414
sI3841
I2415
sI3842
I2416
sI3843
I2417
sI3844
I2418
sI3845
I2419
sI3846
I2420
sI3847
I2421
sI3856
I2422
sI3862
I2423
sI3863
I2424
sI3865
I2425
sI3866
I2426
sI3867
I2427
sI3868
I2428
sI3869
I2429
sI3870
I2430
sI3871
I2431
sI3872
I2432
sI3873
I2433
sI3874
I2434
sI3875
I2435
sI3876
I2436
sI3877
I2437
sI3878
I2438
sI3879
I2439
sI3880
I2440
sI3881
I2441
sI3882
I2442
sI3883
I2443
sI3884
I2444
sI3885
I2445
sI3886
I2446
sI3887
I2447
sI3888
I2448
sI3889
I2449
sI3890
I2450
sI3891
I2451
sI3892
I2452
sI3893
I2453
sI3894
I2454
sI3895
I2455
sI3896
I2456
sI3897
I2457
sI3898
I2458
sI3899
I2459
sI3900
I2460
sI3901
I2461
sI3902
I2462
sI3903
I2463
sI3904
I2464
sI3905
I2465
sI3906
I2466
sI3907
I2467
sI3908
I2468
sI3909
I2469
sI3910
I2470
sI3911
I2471
sI3912
I2472
sI3913
I2473
sI3914
I2474
sI3915
I2475
sI3916
I2476
sI3917
I2477
sI3918
I2478
sI3919
I2479
sI3920
I2480
sI3921
I2481
sI3922
I2482
sI3923
I2483
sI3924
I2484
sI3925
I2485
sI3926
I2486
sI3927
I2487
sI3928
I2488
sI3929
I2489
sI3930
I2490
sI3931
I2491
sI3932
I2492
sI3933
I2493
sI3934
I2494
sI3935
I2495
sI3936
I2496
sI3937
I2497
sI3938
I2498
sI3939
I2499
sI3940
I2500
sI3941
I2501
sI3944
I2502
sI3945
I2503
sI3946
I2504
sI3947
I2505
sI3948
I2506
sI3971
I2507
sI3972
I2508
sI3978
I2509
sI3979
I2510
sI3981
I2511
sI3982
I2512
sI3984
I2513
sI3985
I2514
sI3986
I2515
sI3987
I2516
sI3988
I2517
sI3989
I2518
sI3990
I2519
sI3991
I2520
sI3992
I2521
sI3993
I2522
sI3994
I2523
sI3995
I2524
sI3996
I2525
sI3997
I2526
sI3998
I2527
sI3999
I2528
sI4000
I2529
sI4001
I2530
sI4002
I2531
sI4003
I2532
sI4004
I2533
sI4005
I2534
sI4006
I2535
sI4007
I2536
sI4008
I2537
sI4009
I2538
sI4010
I2539
sI4011
I2540
sI4012
I2541
sI4013
I2542
sI4014
I2543
sI4015
I2544
sI4016
I2545
sI4017
I2546
sI4018
I2547
sI4019
I2548
sI4020
I2549
sI4021
I2550
sI4022
I2551
sI4023
I2552
sI4025
I2553
sI4030
I2554
sI4033
I2555
sI4036
I2556
sI4037
I2557
sI4043
I2558
sI4044
I2559
sI4045
I2560
sI4046
I2561
sI4047
I2562
sI4048
I2563
sI4049
I2564
sI4050
I2565
sI4051
I2566
sI4052
I2567
sI4053
I2568
sI4054
I2569
sI4055
I2570
sI4056
I2571
sI4057
I2572
sI4058
I2573
sI4059
I2574
sI4060
I2575
sI4061
I2576
sI4062
I2577
sI4063
I2578
sI4064
I2579
sI4065
I2580
sI4066
I2581
sI4067
I2582
sI4068
I2583
sI4069
I2584
sI4070
I2585
sI4071
I2586
sI4072
I2587
sI4073
I2588
sI4074
I2589
sI4075
I2590
sI4076
I2591
sI4077
I2592
sI4078
I2593
sI4079
I2594
sI4080
I2595
sI4081
I2596
sI4082
I2597
sI4083
I2598
sI4084
I2599
sI4085
I2600
sI4086
I2601
sI4087
I2602
sI4088
I2603
sI4089
I2604
sI4090
I2605
sI4091
I2606
sI4092
I2607
sI4093
I2608
sI4094
I2609
sI4095
I2610
sI4096
I2611
sI4097
I2612
sI4098
I2613
sI4099
I2614
sI4100
I2615
sI4101
I2616
sI4102
I2617
sI4103
I2618
sI4104
I2619
sI4105
I2620
sI4106
I2621
sI4107
I2622
sI4108
I2623
sI4109
I2624
sI4110
I2625
sI4111
I2626
sI4112
I2627
sI4113
I2628
sI4114
I2629
sI4115
I2630
sI4116
I2631
sI4117
I2632
sI4118
I2633
sI4120
I2634
sI4121
I2635
sI4122
I2636
sI4123
I2637
sI4124
I2638
sI4125
I2639
sI4127
I2640
sI4129
I2641
sI4134
I2642
sI4135
I2643
sI4143
I2644
sI4152
I2645
sI4158
I2646
sI4159
I2647
sI4160
I2648
sI4161
I2649
sI4162
I2650
sI4163
I2651
sI4164
I2652
sI4165
I2653
sI4166
I2654
sI4167
I2655
sI4168
I2656
sI4169
I2657
sI4170
I2658
sI4171
I2659
sI4172
I2660
sI4173
I2661
sI4174
I2662
sI4175
I2663
sI4176
I2664
sI4177
I2665
sI4178
I2666
sI4179
I2667
sI4180
I2668
sI4181
I2669
sI4182
I2670
sI4183
I2671
sI4184
I2672
sI4185
I2673
sI4186
I2674
sI4187
I2675
sI4188
I2676
sI4189
I2677
sI4190
I2678
sI4191
I2679
sI4192
I2680
sI4193
I2681
sI4194
I2682
sI4195
I2683
sI4196
I2684
sI4197
I2685
sI4198
I2686
sI4199
I2687
sI4200
I2688
sI4201
I2689
sI4202
I2690
sI4203
I2691
sI4204
I2692
sI4205
I2693
sI4207
I2694
sI4210
I2695
sI4217
I2696
sI4218
I2697
sI4219
I2698
sI4220
I2699
sI4222
I2700
sI4223
I2701
sI4224
I2702
sI4225
I2703
sI4226
I2704
sI4227
I2705
sI4228
I2706
sI4229
I2707
sI4230
I2708
sI4231
I2709
sI4232
I2710
sI4233
I2711
sI4234
I2712
sI4235
I2713
sI4236
I2714
sI4237
I2715
sI4238
I2716
sI4239
I2717
sI4240
I2718
sI4241
I2719
sI4242
I2720
sI4243
I2721
sI4244
I2722
sI4245
I2723
sI4246
I2724
sI4247
I2725
sI4249
I2726
sI4250
I2727
sI4251
I2728
sI4252
I2729
sI4253
I2730
sI4254
I2731
sI4255
I2732
sI4256
I2733
sI4257
I2734
sI4258
I2735
sI4259
I2736
sI4260
I2737
sI4261
I2738
sI4262
I2739
sI4263
I2740
sI4264
I2741
sI4265
I2742
sI4266
I2743
sI4267
I2744
sI4268
I2745
sI4269
I2746
sI4270
I2747
sI4271
I2748
sI4272
I2749
sI4273
I2750
sI4274
I2751
sI4275
I2752
sI4276
I2753
sI4277
I2754
sI4278
I2755
sI4279
I2756
sI4280
I2757
sI4281
I2758
sI4282
I2759
sI4283
I2760
sI4284
I2761
sI4285
I2762
sI4286
I2763
sI4287
I2764
sI4288
I2765
sI4289
I2766
sI4290
I2767
sI4291
I2768
sI4292
I2769
sI4293
I2770
sI4294
I2771
sI4295
I2772
sI4296
I2773
sI4297
I2774
sI4298
I2775
sI4299
I2776
sI4300
I2777
sI4301
I2778
sI4302
I2779
sI4303
I2780
sI4305
I2781
sI4315
I2782
sI4317
I2783
sI4341
I2784
sI4345
I2785
sI4346
I2786
sI4347
I2787
sI4348
I2788
sI4349
I2789
sI4350
I2790
sI4351
I2791
sI4352
I2792
sI4353
I2793
sI4354
I2794
sI4355
I2795
sI4356
I2796
sI4357
I2797
sI4358
I2798
sI4359
I2799
sI4360
I2800
sI4361
I2801
sI4362
I2802
sI4363
I2803
sI4364
I2804
sI4365
I2805
sI4366
I2806
sI4367
I2807
sI4368
I2808
sI4369
I2809
sI4370
I2810
sI4371
I2811
sI4372
I2812
sI4373
I2813
sI4374
I2814
sI4375
I2815
sI4376
I2816
sI4384
I2817
sI4385
I2818
sI4386
I2819
sI4387
I2820
sI4396
I2821
sI4402
I2822
sI4403
I2823
sI4404
I2824
sI4405
I2825
sI4406
I2826
sI4407
I2827
sI4408
I2828
sI4409
I2829
sI4410
I2830
sI4411
I2831
sI4412
I2832
sI4413
I2833
sI4414
I2834
sI4415
I2835
sI4416
I2836
sI4417
I2837
sI4418
I2838
sI4419
I2839
sI4420
I2840
sI4421
I2841
sI4422
I2842
sI4423
I2843
sI4424
I2844
sI4425
I2845
sI4426
I2846
sI4427
I2847
sI4428
I2848
sI4429
I2849
sI4430
I2850
sI4431
I2851
sI4432
I2852
sI4433
I2853
sI4434
I2854
sI4435
I2855
sI4436
I2856
sI4437
I2857
sI4438
I2858
sI4439
I2859
sI4440
I2860
sI4441
I2861
sI4442
I2862
sI4443
I2863
sI4444
I2864
sI4445
I2865
sI4446
I2866
sI4447
I2867
sI4448
I2868
sI4449
I2869
sI4450
I2870
sI4451
I2871
sI4452
I2872
sI4453
I2873
sI4454
I2874
sI4455
I2875
sI4456
I2876
sI4457
I2877
sI4458
I2878
sI4459
I2879
sI4460
I2880
sI4461
I2881
sI4462
I2882
sI4463
I2883
sI4464
I2884
sI4465
I2885
sI4466
I2886
sI4467
I2887
sI4468
I2888
sI4469
I2889
sI4470
I2890
sI4471
I2891
sI4472
I2892
sI4473
I2893
sI4474
I2894
sI4475
I2895
sI4476
I2896
sI4477
I2897
sI4479
I2898
sI4480
I2899
sI4481
I2900
sI4482
I2901
sI4483
I2902
sI4491
I2903
sI4495
I2904
sI4517
I2905
sI4520
I2906
sI4522
I2907
sI4524
I2908
sI4525
I2909
sI4526
I2910
sI4527
I2911
sI4528
I2912
sI4529
I2913
sI4530
I2914
sI4531
I2915
sI4532
I2916
sI4533
I2917
sI4534
I2918
sI4535
I2919
sI4536
I2920
sI4537
I2921
sI4538
I2922
sI4539
I2923
sI4540
I2924
sI4541
I2925
sI4542
I2926
sI4543
I2927
sI4544
I2928
sI4545
I2929
sI4546
I2930
sI4547
I2931
sI4548
I2932
sI4549
I2933
sI4550
I2934
sI4551
I2935
sI4552
I2936
sI4553
I2937
sI4554
I2938
sI4555
I2939
sI4556
I2940
sI4557
I2941
sI4558
I2942
sI4559
I2943
sI4570
I2944
sI4571
I2945
sI4572
I2946
sI4574
I2947
sI4575
I2948
sI4576
I2949
sI4577
I2950
sI4581
I2951
sI4582
I2952
sI4583
I2953
sI4584
I2954
sI4585
I2955
sI4586
I2956
sI4587
I2957
sI4588
I2958
sI4589
I2959
sI4590
I2960
sI4591
I2961
sI4592
I2962
sI4593
I2963
sI4594
I2964
sI4595
I2965
sI4596
I2966
sI4597
I2967
sI4598
I2968
sI4599
I2969
sI4600
I2970
sI4601
I2971
sI4602
I2972
sI4603
I2973
sI4604
I2974
sI4605
I2975
sI4606
I2976
sI4607
I2977
sI4608
I2978
sI4609
I2979
sI4610
I2980
sI4611
I2981
sI4612
I2982
sI4613
I2983
sI4614
I2984
sI4616
I2985
sI4617
I2986
sI4618
I2987
sI4619
I2988
sI4620
I2989
sI4621
I2990
sI4622
I2991
sI4623
I2992
sI4624
I2993
sI4625
I2994
sI4626
I2995
sI4627
I2996
sI4628
I2997
sI4629
I2998
sI4630
I2999
sI4631
I3000
sI4632
I3001
sI4633
I3002
sI4634
I3003
sI4635
I3004
sI4636
I3005
sI4637
I3006
sI4638
I3007
sI4639
I3008
sI4640
I3009
sI4641
I3010
sI4642
I3011
sI4643
I3012
sI4644
I3013
sI4645
I3014
sI4646
I3015
sI4647
I3016
sI4648
I3017
sI4649
I3018
sI4650
I3019
sI4651
I3020
sI4652
I3021
sI4653
I3022
sI4654
I3023
sI4655
I3024
sI4656
I3025
sI4657
I3026
sI4658
I3027
sI4659
I3028
sI4660
I3029
sI4661
I3030
sI4665
I3031
sI4667
I3032
sI4671
I3033
sI4674
I3034
sI4675
I3035
sI4676
I3036
sI4707
I3037
sI4708
I3038
sI4709
I3039
sI4710
I3040
sI4711
I3041
sI4712
I3042
sI4713
I3043
sI4714
I3044
sI4715
I3045
sI4716
I3046
sI4717
I3047
sI4718
I3048
sI4719
I3049
sI4720
I3050
sI4721
I3051
sI4722
I3052
sI4723
I3053
sI4724
I3054
sI4725
I3055
sI4726
I3056
sI4727
I3057
sI4728
I3058
sI4729
I3059
sI4730
I3060
sI4731
I3061
sI4732
I3062
sI4733
I3063
sI4734
I3064
sI4735
I3065
sI4736
I3066
sI4739
I3067
sI4740
I3068
sI4741
I3069
sI4743
I3070
sI4744
I3071
sI4755
I3072
sI4756
I3073
sI4757
I3074
sI4761
I3075
sI4762
I3076
sI4763
I3077
sI4764
I3078
sI4765
I3079
sI4766
I3080
sI4767
I3081
sI4768
I3082
sI4769
I3083
sI4770
I3084
sI4771
I3085
sI4772
I3086
sI4773
I3087
sI4774
I3088
sI4775
I3089
sI4776
I3090
sI4777
I3091
sI4778
I3092
sI4780
I3093
sI4781
I3094
sI4782
I3095
sI4783
I3096
sI4784
I3097
sI4785
I3098
sI4786
I3099
sI4787
I3100
sI4788
I3101
sI4789
I3102
sI4790
I3103
sI4791
I3104
sI4792
I3105
sI4793
I3106
sI4794
I3107
sI4795
I3108
sI4796
I3109
sI4797
I3110
sI4798
I3111
sI4799
I3112
sI4800
I3113
sI4801
I3114
sI4802
I3115
sI4803
I3116
sI4804
I3117
sI4805
I3118
sI4806
I3119
sI4807
I3120
sI4808
I3121
sI4809
I3122
sI4810
I3123
sI4811
I3124
sI4812
I3125
sI4813
I3126
sI4814
I3127
sI4815
I3128
sI4816
I3129
sI4817
I3130
sI4818
I3131
sI4819
I3132
sI4820
I3133
sI4821
I3134
sI4822
I3135
sI4823
I3136
sI4824
I3137
sI4825
I3138
sI4826
I3139
sI4827
I3140
sI4828
I3141
sI4829
I3142
sI4830
I3143
sI4831
I3144
sI4832
I3145
sI4833
I3146
sI4834
I3147
sI4835
I3148
sI4836
I3149
sI4837
I3150
sI4838
I3151
sI4839
I3152
sI4840
I3153
sI4841
I3154
sI4842
I3155
sI4844
I3156
sI4849
I3157
sI4851
I3158
sI4853
I3159
sI4855
I3160
sI4858
I3161
sI4861
I3162
sI4882
I3163
sI4888
I3164
sI4889
I3165
sI4890
I3166
sI4891
I3167
sI4892
I3168
sI4893
I3169
sI4894
I3170
sI4895
I3171
sI4896
I3172
sI4897
I3173
sI4898
I3174
sI4899
I3175
sI4900
I3176
sI4901
I3177
sI4902
I3178
sI4903
I3179
sI4904
I3180
sI4905
I3181
sI4906
I3182
sI4907
I3183
sI4908
I3184
sI4909
I3185
sI4910
I3186
sI4911
I3187
sI4912
I3188
sI4913
I3189
sI4915
I3190
sI4920
I3191
sI4921
I3192
sI4922
I3193
sI4923
I3194
sI4924
I3195
sI4925
I3196
sI4926
I3197
sI4932
I3198
sI4941
I3199
sI4942
I3200
sI4943
I3201
sI4944
I3202
sI4945
I3203
sI4946
I3204
sI4947
I3205
sI4948
I3206
sI4949
I3207
sI4950
I3208
sI4951
I3209
sI4952
I3210
sI4953
I3211
sI4954
I3212
sI4955
I3213
sI4956
I3214
sI4957
I3215
sI4958
I3216
sI4959
I3217
sI4960
I3218
sI4961
I3219
sI4962
I3220
sI4963
I3221
sI4964
I3222
sI4965
I3223
sI4966
I3224
sI4967
I3225
sI4968
I3226
sI4969
I3227
sI4970
I3228
sI4971
I3229
sI4972
I3230
sI4973
I3231
sI4974
I3232
sI4975
I3233
sI4976
I3234
sI4977
I3235
sI4978
I3236
sI4979
I3237
sI4980
I3238
sI4981
I3239
sI4982
I3240
sI4983
I3241
sI4984
I3242
sI4985
I3243
sI4986
I3244
sI4987
I3245
sI4988
I3246
sI4989
I3247
sI4990
I3248
sI4991
I3249
sI4992
I3250
sI4993
I3251
sI4994
I3252
sI4995
I3253
sI4996
I3254
sI4997
I3255
sI4998
I3256
sI4999
I3257
sI5000
I3258
sI5001
I3259
sI5002
I3260
sI5003
I3261
sI5004
I3262
sI5005
I3263
sI5006
I3264
sI5007
I3265
sI5008
I3266
sI5009
I3267
sI5010
I3268
sI5012
I3269
sI5013
I3270
sI5014
I3271
sI5015
I3272
sI5016
I3273
sI5017
I3274
sI5018
I3275
sI5019
I3276
sI5020
I3277
sI5021
I3278
sI5022
I3279
sI5025
I3280
sI5030
I3281
sI5035
I3282
sI5041
I3283
sI5042
I3284
sI5047
I3285
sI5048
I3286
sI5049
I3287
sI5050
I3288
sI5062
I3289
sI5063
I3290
sI5066
I3291
sI5069
I3292
sI5070
I3293
sI5071
I3294
sI5072
I3295
sI5073
I3296
sI5074
I3297
sI5075
I3298
sI5076
I3299
sI5077
I3300
sI5078
I3301
sI5079
I3302
sI5080
I3303
sI5081
I3304
sI5082
I3305
sI5083
I3306
sI5084
I3307
sI5085
I3308
sI5086
I3309
sI5087
I3310
sI5088
I3311
sI5089
I3312
sI5090
I3313
sI5091
I3314
sI5093
I3315
sI5097
I3316
sI5098
I3317
sI5099
I3318
sI5101
I3319
sI5102
I3320
sI5110
I3321
sI5111
I3322
sI5112
I3323
sI5114
I3324
sI5115
I3325
sI5121
I3326
sI5122
I3327
sI5123
I3328
sI5124
I3329
sI5125
I3330
sI5126
I3331
sI5127
I3332
sI5128
I3333
sI5129
I3334
sI5130
I3335
sI5131
I3336
sI5132
I3337
sI5133
I3338
sI5134
I3339
sI5135
I3340
sI5136
I3341
sI5137
I3342
sI5139
I3343
sI5140
I3344
sI5141
I3345
sI5142
I3346
sI5143
I3347
sI5144
I3348
sI5145
I3349
sI5146
I3350
sI5147
I3351
sI5148
I3352
sI5149
I3353
sI5150
I3354
sI5151
I3355
sI5152
I3356
sI5153
I3357
sI5154
I3358
sI5155
I3359
sI5156
I3360
sI5157
I3361
sI5158
I3362
sI5159
I3363
sI5160
I3364
sI5161
I3365
sI5162
I3366
sI5163
I3367
sI5164
I3368
sI5165
I3369
sI5166
I3370
sI5167
I3371
sI5168
I3372
sI5169
I3373
sI5170
I3374
sI5171
I3375
sI5172
I3376
sI5173
I3377
sI5174
I3378
sI5175
I3379
sI5176
I3380
sI5177
I3381
sI5178
I3382
sI5179
I3383
sI5180
I3384
sI5181
I3385
sI5182
I3386
sI5183
I3387
sI5184
I3388
sI5185
I3389
sI5186
I3390
sI5187
I3391
sI5188
I3392
sI5189
I3393
sI5190
I3394
sI5191
I3395
sI5192
I3396
sI5193
I3397
sI5194
I3398
sI5195
I3399
sI5196
I3400
sI5197
I3401
sI5198
I3402
sI5199
I3403
sI5201
I3404
sI5204
I3405
sI5205
I3406
sI5209
I3407
sI5212
I3408
sI5215
I3409
sI5216
I3410
sI5219
I3411
sI5222
I3412
sI5223
I3413
sI5227
I3414
sI5228
I3415
sI5229
I3416
sI5240
I3417
sI5241
I3418
sI5246
I3419
sI5247
I3420
sI5248
I3421
sI5249
I3422
sI5250
I3423
sI5251
I3424
sI5252
I3425
sI5253
I3426
sI5254
I3427
sI5255
I3428
sI5256
I3429
sI5257
I3430
sI5258
I3431
sI5259
I3432
sI5260
I3433
sI5261
I3434
sI5262
I3435
sI5263
I3436
sI5264
I3437
sI5265
I3438
sI5266
I3439
sI5267
I3440
sI5268
I3441
sI5269
I3442
sI5270
I3443
sI5271
I3444
sI5274
I3445
sI5277
I3446
sI5280
I3447
sI5295
I3448
sI5296
I3449
sI5299
I3450
sI5301
I3451
sI5302
I3452
sI5303
I3453
sI5304
I3454
sI5305
I3455
sI5306
I3456
sI5307
I3457
sI5308
I3458
sI5309
I3459
sI5310
I3460
sI5311
I3461
sI5312
I3462
sI5313
I3463
sI5314
I3464
sI5315
I3465
sI5316
I3466
sI5317
I3467
sI5318
I3468
sI5319
I3469
sI5320
I3470
sI5321
I3471
sI5322
I3472
sI5323
I3473
sI5324
I3474
sI5325
I3475
sI5326
I3476
sI5327
I3477
sI5328
I3478
sI5329
I3479
sI5330
I3480
sI5331
I3481
sI5332
I3482
sI5333
I3483
sI5334
I3484
sI5335
I3485
sI5336
I3486
sI5337
I3487
sI5338
I3488
sI5339
I3489
sI5340
I3490
sI5341
I3491
sI5342
I3492
sI5343
I3493
sI5344
I3494
sI5345
I3495
sI5346
I3496
sI5347
I3497
sI5348
I3498
sI5349
I3499
sI5350
I3500
sI5351
I3501
sI5352
I3502
sI5353
I3503
sI5354
I3504
sI5355
I3505
sI5356
I3506
sI5357
I3507
sI5358
I3508
sI5359
I3509
sI5360
I3510
sI5361
I3511
sI5362
I3512
sI5363
I3513
sI5364
I3514
sI5365
I3515
sI5366
I3516
sI5367
I3517
sI5368
I3518
sI5369
I3519
sI5370
I3520
sI5371
I3521
sI5374
I3522
sI5375
I3523
sI5377
I3524
sI5378
I3525
sI5379
I3526
sI5380
I3527
sI5381
I3528
sI5384
I3529
sI5385
I3530
sI5395
I3531
sI5396
I3532
sI5397
I3533
sI5398
I3534
sI5399
I3535
sI5400
I3536
sI5401
I3537
sI5402
I3538
sI5403
I3539
sI5404
I3540
sI5405
I3541
sI5408
I3542
sI5409
I3543
sI5415
I3544
sI5416
I3545
sI5421
I3546
sI5430
I3547
sI5431
I3548
sI5432
I3549
sI5433
I3550
sI5434
I3551
sI5435
I3552
sI5436
I3553
sI5437
I3554
sI5438
I3555
sI5439
I3556
sI5440
I3557
sI5441
I3558
sI5442
I3559
sI5443
I3560
sI5444
I3561
sI5445
I3562
sI5446
I3563
sI5447
I3564
sI5448
I3565
sI5449
I3566
sI5451
I3567
sI5452
I3568
sI5453
I3569
sI5455
I3570
sI5460
I3571
sI5469
I3572
sI5475
I3573
sI5477
I3574
sI5480
I3575
sI5481
I3576
sI5482
I3577
sI5483
I3578
sI5484
I3579
sI5485
I3580
sI5486
I3581
sI5487
I3582
sI5488
I3583
sI5489
I3584
sI5490
I3585
sI5491
I3586
sI5492
I3587
sI5493
I3588
sI5494
I3589
sI5495
I3590
sI5496
I3591
sI5497
I3592
sI5498
I3593
sI5499
I3594
sI5500
I3595
sI5501
I3596
sI5502
I3597
sI5503
I3598
sI5504
I3599
sI5505
I3600
sI5506
I3601
sI5507
I3602
sI5508
I3603
sI5509
I3604
sI5510
I3605
sI5511
I3606
sI5512
I3607
sI5513
I3608
sI5514
I3609
sI5515
I3610
sI5516
I3611
sI5517
I3612
sI5518
I3613
sI5519
I3614
sI5520
I3615
sI5521
I3616
sI5522
I3617
sI5523
I3618
sI5524
I3619
sI5525
I3620
sI5526
I3621
sI5527
I3622
sI5528
I3623
sI5529
I3624
sI5530
I3625
sI5531
I3626
sI5532
I3627
sI5533
I3628
sI5534
I3629
sI5535
I3630
sI5536
I3631
sI5537
I3632
sI5538
I3633
sI5539
I3634
sI5540
I3635
sI5541
I3636
sI5542
I3637
sI5543
I3638
sI5544
I3639
sI5545
I3640
sI5546
I3641
sI5547
I3642
sI5548
I3643
sI5549
I3644
sI5550
I3645
sI5551
I3646
sI5552
I3647
sI5554
I3648
sI5555
I3649
sI5556
I3650
sI5557
I3651
sI5558
I3652
sI5559
I3653
sI5560
I3654
sI5562
I3655
sI5563
I3656
sI5564
I3657
sI5566
I3658
sI5569
I3659
sI5572
I3660
sI5573
I3661
sI5574
I3662
sI5577
I3663
sI5579
I3664
sI5581
I3665
sI5582
I3666
sI5583
I3667
sI5584
I3668
sI5585
I3669
sI5586
I3670
sI5588
I3671
sI5589
I3672
sI5590
I3673
sI5610
I3674
sI5612
I3675
sI5613
I3676
sI5614
I3677
sI5615
I3678
sI5616
I3679
sI5617
I3680
sI5618
I3681
sI5619
I3682
sI5620
I3683
sI5621
I3684
sI5622
I3685
sI5623
I3686
sI5624
I3687
sI5625
I3688
sI5626
I3689
sI5627
I3690
sI5628
I3691
sI5629
I3692
sI5630
I3693
sI5631
I3694
sI5635
I3695
sI5650
I3696
sI5652
I3697
sI5660
I3698
sI5661
I3699
sI5662
I3700
sI5663
I3701
sI5664
I3702
sI5665
I3703
sI5666
I3704
sI5667
I3705
sI5668
I3706
sI5669
I3707
sI5670
I3708
sI5671
I3709
sI5672
I3710
sI5673
I3711
sI5674
I3712
sI5675
I3713
sI5676
I3714
sI5677
I3715
sI5678
I3716
sI5679
I3717
sI5680
I3718
sI5681
I3719
sI5682
I3720
sI5683
I3721
sI5684
I3722
sI5685
I3723
sI5686
I3724
sI5687
I3725
sI5688
I3726
sI5689
I3727
sI5690
I3728
sI5691
I3729
sI5692
I3730
sI5693
I3731
sI5694
I3732
sI5695
I3733
sI5696
I3734
sI5697
I3735
sI5698
I3736
sI5699
I3737
sI5700
I3738
sI5701
I3739
sI5702
I3740
sI5703
I3741
sI5704
I3742
sI5705
I3743
sI5706
I3744
sI5707
I3745
sI5708
I3746
sI5709
I3747
sI5710
I3748
sI5711
I3749
sI5712
I3750
sI5713
I3751
sI5714
I3752
sI5715
I3753
sI5716
I3754
sI5717
I3755
sI5718
I3756
sI5719
I3757
sI5720
I3758
sI5721
I3759
sI5722
I3760
sI5723
I3761
sI5724
I3762
sI5725
I3763
sI5726
I3764
sI5727
I3765
sI5728
I3766
sI5729
I3767
sI5730
I3768
sI5733
I3769
sI5734
I3770
sI5735
I3771
sI5736
I3772
sI5737
I3773
sI5738
I3774
sI5739
I3775
sI5740
I3776
sI5741
I3777
sI5742
I3778
sI5743
I3779
sI5744
I3780
sI5745
I3781
sI5748
I3782
sI5750
I3783
sI5751
I3784
sI5752
I3785
sI5753
I3786
sI5754
I3787
sI5758
I3788
sI5761
I3789
sI5763
I3790
sI5764
I3791
sI5765
I3792
sI5766
I3793
sI5769
I3794
sI5770
I3795
sI5771
I3796
sI5788
I3797
sI5790
I3798
sI5791
I3799
sI5792
I3800
sI5793
I3801
sI5794
I3802
sI5795
I3803
sI5796
I3804
sI5797
I3805
sI5798
I3806
sI5799
I3807
sI5800
I3808
sI5801
I3809
sI5802
I3810
sI5803
I3811
sI5804
I3812
sI5805
I3813
sI5806
I3814
sI5807
I3815
sI5808
I3816
sI5809
I3817
sI5810
I3818
sI5811
I3819
sI5812
I3820
sI5813
I3821
sI5814
I3822
sI5815
I3823
sI5839
I3824
sI5840
I3825
sI5841
I3826
sI5842
I3827
sI5843
I3828
sI5844
I3829
sI5845
I3830
sI5846
I3831
sI5847
I3832
sI5848
I3833
sI5849
I3834
sI5850
I3835
sI5851
I3836
sI5852
I3837
sI5853
I3838
sI5854
I3839
sI5855
I3840
sI5856
I3841
sI5857
I3842
sI5858
I3843
sI5859
I3844
sI5860
I3845
sI5861
I3846
sI5862
I3847
sI5863
I3848
sI5864
I3849
sI5865
I3850
sI5866
I3851
sI5867
I3852
sI5868
I3853
sI5869
I3854
sI5870
I3855
sI5871
I3856
sI5872
I3857
sI5873
I3858
sI5874
I3859
sI5875
I3860
sI5876
I3861
sI5877
I3862
sI5878
I3863
sI5879
I3864
sI5880
I3865
sI5881
I3866
sI5882
I3867
sI5883
I3868
sI5884
I3869
sI5885
I3870
sI5886
I3871
sI5887
I3872
sI5888
I3873
sI5889
I3874
sI5890
I3875
sI5891
I3876
sI5892
I3877
sI5893
I3878
sI5894
I3879
sI5895
I3880
sI5896
I3881
sI5897
I3882
sI5898
I3883
sI5899
I3884
sI5900
I3885
sI5901
I3886
sI5902
I3887
sI5903
I3888
sI5904
I3889
sI5905
I3890
sI5906
I3891
sI5907
I3892
sI5908
I3893
sI5909
I3894
sI5910
I3895
sI5911
I3896
sI5912
I3897
sI5913
I3898
sI5914
I3899
sI5915
I3900
sI5916
I3901
sI5917
I3902
sI5918
I3903
sI5919
I3904
sI5920
I3905
sI5921
I3906
sI5922
I3907
sI5923
I3908
sI5924
I3909
sI5925
I3910
sI5926
I3911
sI5927
I3912
sI5930
I3913
sI5931
I3914
sI5932
I3915
sI5933
I3916
sI5934
I3917
sI5939
I3918
sI5943
I3919
sI5944
I3920
sI5946
I3921
sI5947
I3922
sI5948
I3923
sI5949
I3924
sI5950
I3925
sI5951
I3926
sI5954
I3927
sI5956
I3928
sI5972
I3929
sI5974
I3930
sI5975
I3931
sI5976
I3932
sI5977
I3933
sI5978
I3934
sI5979
I3935
sI5980
I3936
sI5981
I3937
sI5983
I3938
sI5984
I3939
sI5985
I3940
sI5987
I3941
sI5988
I3942
sI5989
I3943
sI5990
I3944
sI5991
I3945
sI5992
I3946
sI5993
I3947
sI5995
I3948
sI5996
I3949
sI5998
I3950
sI6007
I3951
sI6014
I3952
sI6017
I3953
sI6018
I3954
sI6020
I3955
sI6021
I3956
sI6022
I3957
sI6023
I3958
sI6024
I3959
sI6025
I3960
sI6026
I3961
sI6027
I3962
sI6028
I3963
sI6029
I3964
sI6030
I3965
sI6031
I3966
sI6032
I3967
sI6033
I3968
sI6034
I3969
sI6035
I3970
sI6036
I3971
sI6037
I3972
sI6038
I3973
sI6039
I3974
sI6040
I3975
sI6041
I3976
sI6042
I3977
sI6043
I3978
sI6044
I3979
sI6045
I3980
sI6046
I3981
sI6047
I3982
sI6048
I3983
sI6049
I3984
sI6050
I3985
sI6051
I3986
sI6052
I3987
sI6053
I3988
sI6054
I3989
sI6055
I3990
sI6056
I3991
sI6057
I3992
sI6058
I3993
sI6059
I3994
sI6060
I3995
sI6061
I3996
sI6063
I3997
sI6064
I3998
sI6065
I3999
sI6066
I4000
sI6067
I4001
sI6068
I4002
sI6069
I4003
sI6070
I4004
sI6071
I4005
sI6072
I4006
sI6073
I4007
sI6074
I4008
sI6075
I4009
sI6076
I4010
sI6077
I4011
sI6078
I4012
sI6079
I4013
sI6080
I4014
sI6081
I4015
sI6082
I4016
sI6083
I4017
sI6084
I4018
sI6085
I4019
sI6086
I4020
sI6087
I4021
sI6088
I4022
sI6089
I4023
sI6090
I4024
sI6094
I4025
sI6096
I4026
sI6101
I4027
sI6102
I4028
sI6104
I4029
sI6109
I4030
sI6111
I4031
sI6114
I4032
sI6115
I4033
sI6118
I4034
sI6120
I4035
sI6121
I4036
sI6126
I4037
sI6127
I4038
sI6129
I4039
sI6130
I4040
sI6131
I4041
sI6132
I4042
sI6134
I4043
sI6150
I4044
sI6153
I4045
sI6156
I4046
sI6157
I4047
sI6158
I4048
sI6159
I4049
sI6160
I4050
sI6161
I4051
sI6162
I4052
sI6163
I4053
sI6164
I4054
sI6165
I4055
sI6166
I4056
sI6167
I4057
sI6168
I4058
sI6169
I4059
sI6170
I4060
sI6171
I4061
sI6172
I4062
sI6173
I4063
sI6174
I4064
sI6175
I4065
sI6176
I4066
sI6177
I4067
sI6195
I4068
sI6197
I4069
sI6199
I4070
sI6200
I4071
sI6201
I4072
sI6202
I4073
sI6203
I4074
sI6204
I4075
sI6205
I4076
sI6206
I4077
sI6207
I4078
sI6208
I4079
sI6209
I4080
sI6210
I4081
sI6211
I4082
sI6212
I4083
sI6213
I4084
sI6214
I4085
sI6215
I4086
sI6216
I4087
sI6217
I4088
sI6218
I4089
sI6219
I4090
sI6220
I4091
sI6221
I4092
sI6222
I4093
sI6223
I4094
sI6224
I4095
sI6225
I4096
sI6226
I4097
sI6227
I4098
sI6228
I4099
sI6229
I4100
sI6230
I4101
sI6231
I4102
sI6232
I4103
sI6233
I4104
sI6234
I4105
sI6235
I4106
sI6236
I4107
sI6237
I4108
sI6238
I4109
sI6239
I4110
sI6240
I4111
sI6244
I4112
sI6245
I4113
sI6246
I4114
sI6247
I4115
sI6248
I4116
sI6249
I4117
sI6250
I4118
sI6251
I4119
sI6252
I4120
sI6253
I4121
sI6254
I4122
sI6255
I4123
sI6256
I4124
sI6257
I4125
sI6258
I4126
sI6259
I4127
sI6260
I4128
sI6261
I4129
sI6262
I4130
sI6263
I4131
sI6264
I4132
sI6265
I4133
sI6266
I4134
sI6267
I4135
sI6268
I4136
sI6270
I4137
sI6271
I4138
sI6275
I4139
sI6278
I4140
sI6281
I4141
sI6282
I4142
sI6284
I4143
sI6285
I4144
sI6286
I4145
sI6287
I4146
sI6288
I4147
sI6289
I4148
sI6290
I4149
sI6291
I4150
sI6293
I4151
sI6297
I4152
sI6300
I4153
sI6301
I4154
sI6302
I4155
sI6305
I4156
sI6310
I4157
sI6311
I4158
sI6312
I4159
sI6313
I4160
sI6314
I4161
sI6320
I4162
sI6331
I4163
sI6332
I4164
sI6333
I4165
sI6334
I4166
sI6335
I4167
sI6336
I4168
sI6337
I4169
sI6338
I4170
sI6339
I4171
sI6340
I4172
sI6341
I4173
sI6342
I4174
sI6343
I4175
sI6344
I4176
sI6345
I4177
sI6346
I4178
sI6347
I4179
sI6348
I4180
sI6349
I4181
sI6350
I4182
sI6351
I4183
sI6352
I4184
sI6353
I4185
sI6354
I4186
sI6355
I4187
sI6356
I4188
sI6357
I4189
sI6358
I4190
sI6376
I4191
sI6381
I4192
sI6382
I4193
sI6383
I4194
sI6384
I4195
sI6385
I4196
sI6386
I4197
sI6387
I4198
sI6388
I4199
sI6389
I4200
sI6390
I4201
sI6391
I4202
sI6392
I4203
sI6393
I4204
sI6394
I4205
sI6395
I4206
sI6396
I4207
sI6397
I4208
sI6398
I4209
sI6399
I4210
sI6400
I4211
sI6401
I4212
sI6402
I4213
sI6403
I4214
sI6404
I4215
sI6405
I4216
sI6406
I4217
sI6407
I4218
sI6408
I4219
sI6409
I4220
sI6410
I4221
sI6411
I4222
sI6412
I4223
sI6413
I4224
sI6414
I4225
sI6415
I4226
sI6416
I4227
sI6417
I4228
sI6418
I4229
sI6425
I4230
sI6426
I4231
sI6427
I4232
sI6428
I4233
sI6429
I4234
sI6430
I4235
sI6431
I4236
sI6432
I4237
sI6433
I4238
sI6436
I4239
sI6437
I4240
sI6438
I4241
sI6439
I4242
sI6440
I4243
sI6441
I4244
sI6442
I4245
sI6443
I4246
sI6444
I4247
sI6445
I4248
sI6446
I4249
sI6450
I4250
sI6451
I4251
sI6457
I4252
sI6461
I4253
sI6462
I4254
sI6463
I4255
sI6464
I4256
sI6465
I4257
sI6468
I4258
sI6471
I4259
sI6473
I4260
sI6475
I4261
sI6476
I4262
sI6477
I4263
sI6478
I4264
sI6480
I4265
sI6481
I4266
sI6482
I4267
sI6485
I4268
sI6486
I4269
sI6488
I4270
sI6491
I4271
sI6492
I4272
sI6493
I4273
sI6502
I4274
sI6503
I4275
sI6506
I4276
sI6507
I4277
sI6508
I4278
sI6509
I4279
sI6511
I4280
sI6512
I4281
sI6514
I4282
sI6515
I4283
sI6516
I4284
sI6518
I4285
sI6519
I4286
sI6520
I4287
sI6521
I4288
sI6522
I4289
sI6523
I4290
sI6524
I4291
sI6525
I4292
sI6526
I4293
sI6527
I4294
sI6528
I4295
sI6529
I4296
sI6530
I4297
sI6531
I4298
sI6532
I4299
sI6533
I4300
sI6534
I4301
sI6536
I4302
sI6537
I4303
sI6538
I4304
sI6539
I4305
sI6541
I4306
sI6545
I4307
sI6554
I4308
sI6556
I4309
sI6557
I4310
sI6558
I4311
sI6560
I4312
sI6561
I4313
sI6562
I4314
sI6563
I4315
sI6564
I4316
sI6565
I4317
sI6566
I4318
sI6567
I4319
sI6568
I4320
sI6569
I4321
sI6570
I4322
sI6571
I4323
sI6572
I4324
sI6573
I4325
sI6574
I4326
sI6575
I4327
sI6576
I4328
sI6577
I4329
sI6578
I4330
sI6579
I4331
sI6580
I4332
sI6581
I4333
sI6582
I4334
sI6583
I4335
sI6584
I4336
sI6585
I4337
sI6586
I4338
sI6587
I4339
sI6588
I4340
sI6589
I4341
sI6590
I4342
sI6591
I4343
sI6592
I4344
sI6593
I4345
sI6594
I4346
sI6595
I4347
sI6596
I4348
sI6597
I4349
sI6598
I4350
sI6604
I4351
sI6606
I4352
sI6607
I4353
sI6608
I4354
sI6609
I4355
sI6610
I4356
sI6611
I4357
sI6612
I4358
sI6617
I4359
sI6618
I4360
sI6619
I4361
sI6620
I4362
sI6621
I4363
sI6622
I4364
sI6623
I4365
sI6624
I4366
sI6625
I4367
sI6626
I4368
sI6627
I4369
sI6628
I4370
sI6629
I4371
sI6630
I4372
sI6631
I4373
sI6632
I4374
sI6635
I4375
sI6641
I4376
sI6642
I4377
sI6643
I4378
sI6644
I4379
sI6645
I4380
sI6646
I4381
sI6647
I4382
sI6656
I4383
sI6658
I4384
sI6659
I4385
sI6665
I4386
sI6666
I4387
sI6668
I4388
sI6670
I4389
sI6671
I4390
sI6672
I4391
sI6694
I4392
sI6695
I4393
sI6696
I4394
sI6697
I4395
sI6701
I4396
sI6702
I4397
sI6703
I4398
sI6704
I4399
sI6705
I4400
sI6706
I4401
sI6707
I4402
sI6708
I4403
sI6709
I4404
sI6710
I4405
sI6712
I4406
sI6713
I4407
sI6714
I4408
sI6716
I4409
sI6717
I4410
sI6718
I4411
sI6719
I4412
sI6722
I4413
sI6723
I4414
sI6724
I4415
sI6726
I4416
sI6735
I4417
sI6737
I4418
sI6738
I4419
sI6739
I4420
sI6741
I4421
sI6742
I4422
sI6743
I4423
sI6744
I4424
sI6745
I4425
sI6746
I4426
sI6747
I4427
sI6748
I4428
sI6749
I4429
sI6750
I4430
sI6751
I4431
sI6752
I4432
sI6753
I4433
sI6754
I4434
sI6755
I4435
sI6756
I4436
sI6757
I4437
sI6758
I4438
sI6759
I4439
sI6760
I4440
sI6761
I4441
sI6762
I4442
sI6763
I4443
sI6764
I4444
sI6765
I4445
sI6766
I4446
sI6767
I4447
sI6768
I4448
sI6769
I4449
sI6770
I4450
sI6771
I4451
sI6772
I4452
sI6773
I4453
sI6774
I4454
sI6775
I4455
sI6776
I4456
sI6777
I4457
sI6783
I4458
sI6785
I4459
sI6786
I4460
sI6787
I4461
sI6788
I4462
sI6789
I4463
sI6790
I4464
sI6792
I4465
sI6796
I4466
sI6797
I4467
sI6798
I4468
sI6799
I4469
sI6800
I4470
sI6801
I4471
sI6802
I4472
sI6803
I4473
sI6804
I4474
sI6805
I4475
sI6806
I4476
sI6807
I4477
sI6808
I4478
sI6809
I4479
sI6810
I4480
sI6811
I4481
sI6812
I4482
sI6815
I4483
sI6816
I4484
sI6817
I4485
sI6818
I4486
sI6820
I4487
sI6821
I4488
sI6822
I4489
sI6823
I4490
sI6824
I4491
sI6827
I4492
sI6828
I4493
sI6829
I4494
sI6830
I4495
sI6834
I4496
sI6840
I4497
sI6841
I4498
sI6843
I4499
sI6846
I4500
sI6847
I4501
sI6849
I4502
sI6850
I4503
sI6851
I4504
sI6852
I4505
sI6857
I4506
sI6870
I4507
sI6874
I4508
sI6876
I4509
sI6879
I4510
sI6881
I4511
sI6884
I4512
sI6885
I4513
sI6886
I4514
sI6887
I4515
sI6888
I4516
sI6889
I4517
sI6890
I4518
sI6892
I4519
sI6893
I4520
sI6894
I4521
sI6895
I4522
sI6896
I4523
sI6898
I4524
sI6899
I4525
sI6900
I4526
sI6920
I4527
sI6921
I4528
sI6922
I4529
sI6923
I4530
sI6924
I4531
sI6925
I4532
sI6926
I4533
sI6927
I4534
sI6928
I4535
sI6929
I4536
sI6930
I4537
sI6931
I4538
sI6932
I4539
sI6933
I4540
sI6934
I4541
sI6935
I4542
sI6936
I4543
sI6937
I4544
sI6938
I4545
sI6939
I4546
sI6940
I4547
sI6941
I4548
sI6942
I4549
sI6943
I4550
sI6944
I4551
sI6945
I4552
sI6946
I4553
sI6947
I4554
sI6948
I4555
sI6949
I4556
sI6950
I4557
sI6951
I4558
sI6952
I4559
sI6953
I4560
sI6954
I4561
sI6955
I4562
sI6956
I4563
sI6957
I4564
sI6960
I4565
sI6962
I4566
sI6965
I4567
sI6966
I4568
sI6967
I4569
sI6968
I4570
sI6969
I4571
sI6970
I4572
sI6973
I4573
sI6976
I4574
sI6977
I4575
sI6978
I4576
sI6979
I4577
sI6980
I4578
sI6981
I4579
sI6982
I4580
sI6983
I4581
sI6984
I4582
sI6985
I4583
sI6987
I4584
sI6989
I4585
sI6990
I4586
sI6991
I4587
sI6992
I4588
sI7000
I4589
sI7001
I4590
sI7002
I4591
sI7003
I4592
sI7008
I4593
sI7014
I4594
sI7015
I4595
sI7016
I4596
sI7025
I4597
sI7027
I4598
sI7028
I4599
sI7029
I4600
sI7030
I4601
sI7034
I4602
sI7042
I4603
sI7051
I4604
sI7052
I4605
sI7055
I4606
sI7056
I4607
sI7062
I4608
sI7066
I4609
sI7067
I4610
sI7068
I4611
sI7069
I4612
sI7070
I4613
sI7072
I4614
sI7073
I4615
sI7074
I4616
sI7075
I4617
sI7076
I4618
sI7077
I4619
sI7078
I4620
sI7079
I4621
sI7080
I4622
sI7084
I4623
sI7088
I4624
sI7096
I4625
sI7099
I4626
sI7100
I4627
sI7101
I4628
sI7102
I4629
sI7103
I4630
sI7104
I4631
sI7105
I4632
sI7106
I4633
sI7107
I4634
sI7108
I4635
sI7109
I4636
sI7110
I4637
sI7111
I4638
sI7112
I4639
sI7113
I4640
sI7114
I4641
sI7115
I4642
sI7116
I4643
sI7117
I4644
sI7118
I4645
sI7119
I4646
sI7120
I4647
sI7121
I4648
sI7122
I4649
sI7123
I4650
sI7124
I4651
sI7125
I4652
sI7126
I4653
sI7127
I4654
sI7128
I4655
sI7129
I4656
sI7130
I4657
sI7131
I4658
sI7132
I4659
sI7133
I4660
sI7134
I4661
sI7135
I4662
sI7137
I4663
sI7138
I4664
sI7139
I4665
sI7142
I4666
sI7145
I4667
sI7146
I4668
sI7147
I4669
sI7148
I4670
sI7149
I4671
sI7150
I4672
sI7152
I4673
sI7153
I4674
sI7154
I4675
sI7156
I4676
sI7158
I4677
sI7159
I4678
sI7161
I4679
sI7162
I4680
sI7163
I4681
sI7164
I4682
sI7165
I4683
sI7166
I4684
sI7167
I4685
sI7168
I4686
sI7169
I4687
sI7170
I4688
sI7171
I4689
sI7172
I4690
sI7173
I4691
sI7175
I4692
sI7179
I4693
sI7180
I4694
sI7181
I4695
sI7182
I4696
sI7186
I4697
sI7189
I4698
sI7190
I4699
sI7191
I4700
sI7192
I4701
sI7193
I4702
sI7194
I4703
sI7195
I4704
sI7206
I4705
sI7209
I4706
sI7210
I4707
sI7232
I4708
sI7234
I4709
sI7235
I4710
sI7236
I4711
sI7237
I4712
sI7238
I4713
sI7243
I4714
sI7244
I4715
sI7246
I4716
sI7247
I4717
sI7248
I4718
sI7249
I4719
sI7250
I4720
sI7251
I4721
sI7252
I4722
sI7253
I4723
sI7254
I4724
sI7255
I4725
sI7256
I4726
sI7257
I4727
sI7258
I4728
sI7259
I4729
sI7260
I4730
sI7266
I4731
sI7270
I4732
sI7275
I4733
sI7277
I4734
sI7279
I4735
sI7280
I4736
sI7281
I4737
sI7282
I4738
sI7283
I4739
sI7284
I4740
sI7285
I4741
sI7286
I4742
sI7287
I4743
sI7288
I4744
sI7289
I4745
sI7290
I4746
sI7291
I4747
sI7292
I4748
sI7293
I4749
sI7294
I4750
sI7295
I4751
sI7296
I4752
sI7297
I4753
sI7298
I4754
sI7299
I4755
sI7300
I4756
sI7301
I4757
sI7302
I4758
sI7303
I4759
sI7304
I4760
sI7305
I4761
sI7306
I4762
sI7307
I4763
sI7308
I4764
sI7309
I4765
sI7310
I4766
sI7311
I4767
sI7312
I4768
sI7313
I4769
sI7314
I4770
sI7315
I4771
sI7316
I4772
sI7326
I4773
sI7328
I4774
sI7329
I4775
sI7330
I4776
sI7331
I4777
sI7336
I4778
sI7337
I4779
sI7338
I4780
sI7339
I4781
sI7340
I4782
sI7341
I4783
sI7342
I4784
sI7343
I4785
sI7344
I4786
sI7345
I4787
sI7346
I4788
sI7347
I4789
sI7348
I4790
sI7349
I4791
sI7350
I4792
sI7351
I4793
sI7352
I4794
sI7353
I4795
sI7357
I4796
sI7358
I4797
sI7359
I4798
sI7360
I4799
sI7362
I4800
sI7363
I4801
sI7364
I4802
sI7365
I4803
sI7366
I4804
sI7367
I4805
sI7370
I4806
sI7372
I4807
sI7373
I4808
sI7374
I4809
sI7375
I4810
sI7381
I4811
sI7388
I4812
sI7414
I4813
sI7428
I4814
sI7429
I4815
sI7430
I4816
sI7431
I4817
sI7432
I4818
sI7433
I4819
sI7434
I4820
sI7435
I4821
sI7436
I4822
sI7437
I4823
sI7438
I4824
sI7439
I4825
sI7440
I4826
sI7441
I4827
sI7443
I4828
sI7452
I4829
sI7457
I4830
sI7458
I4831
sI7459
I4832
sI7463
I4833
sI7464
I4834
sI7465
I4835
sI7466
I4836
sI7467
I4837
sI7468
I4838
sI7469
I4839
sI7470
I4840
sI7471
I4841
sI7472
I4842
sI7473
I4843
sI7474
I4844
sI7475
I4845
sI7476
I4846
sI7477
I4847
sI7478
I4848
sI7479
I4849
sI7480
I4850
sI7481
I4851
sI7482
I4852
sI7483
I4853
sI7484
I4854
sI7485
I4855
sI7486
I4856
sI7487
I4857
sI7488
I4858
sI7489
I4859
sI7490
I4860
sI7491
I4861
sI7492
I4862
sI7493
I4863
sI7494
I4864
sI7495
I4865
sI7506
I4866
sI7507
I4867
sI7508
I4868
sI7509
I4869
sI7510
I4870
sI7516
I4871
sI7517
I4872
sI7519
I4873
sI7520
I4874
sI7521
I4875
sI7522
I4876
sI7523
I4877
sI7524
I4878
sI7525
I4879
sI7526
I4880
sI7527
I4881
sI7528
I4882
sI7529
I4883
sI7530
I4884
sI7531
I4885
sI7532
I4886
sI7533
I4887
sI7536
I4888
sI7537
I4889
sI7538
I4890
sI7540
I4891
sI7541
I4892
sI7542
I4893
sI7543
I4894
sI7544
I4895
sI7545
I4896
sI7546
I4897
sI7547
I4898
sI7548
I4899
sI7549
I4900
sI7550
I4901
sI7551
I4902
sI7553
I4903
sI7554
I4904
sI7555
I4905
sI7556
I4906
sI7562
I4907
sI7568
I4908
sI7569
I4909
sI7570
I4910
sI7571
I4911
sI7605
I4912
sI7606
I4913
sI7607
I4914
sI7608
I4915
sI7609
I4916
sI7610
I4917
sI7611
I4918
sI7612
I4919
sI7613
I4920
sI7614
I4921
sI7615
I4922
sI7616
I4923
sI7617
I4924
sI7618
I4925
sI7619
I4926
sI7620
I4927
sI7621
I4928
sI7622
I4929
sI7623
I4930
sI7624
I4931
sI7626
I4932
sI7628
I4933
sI7633
I4934
sI7634
I4935
sI7636
I4936
sI7639
I4937
sI7641
I4938
sI7644
I4939
sI7645
I4940
sI7646
I4941
sI7647
I4942
sI7648
I4943
sI7649
I4944
sI7650
I4945
sI7652
I4946
sI7653
I4947
sI7654
I4948
sI7655
I4949
sI7656
I4950
sI7657
I4951
sI7658
I4952
sI7659
I4953
sI7660
I4954
sI7661
I4955
sI7662
I4956
sI7663
I4957
sI7664
I4958
sI7665
I4959
sI7666
I4960
sI7667
I4961
sI7668
I4962
sI7669
I4963
sI7670
I4964
sI7671
I4965
sI7672
I4966
sI7673
I4967
sI7674
I4968
sI7677
I4969
sI7680
I4970
sI7686
I4971
sI7690
I4972
sI7697
I4973
sI7698
I4974
sI7699
I4975
sI7700
I4976
sI7701
I4977
sI7702
I4978
sI7703
I4979
sI7704
I4980
sI7705
I4981
sI7706
I4982
sI7707
I4983
sI7708
I4984
sI7709
I4985
sI7710
I4986
sI7712
I4987
sI7713
I4988
sI7715
I4989
sI7716
I4990
sI7718
I4991
sI7721
I4992
sI7722
I4993
sI7724
I4994
sI7726
I4995
sI7727
I4996
sI7728
I4997
sI7731
I4998
sI7734
I4999
sI7736
I5000
sI7739
I5001
sI7749
I5002
sI7750
I5003
sI7751
I5004
sI7763
I5005
sI7781
I5006
sI7784
I5007
sI7785
I5008
sI7787
I5009
sI7788
I5010
sI7789
I5011
sI7790
I5012
sI7791
I5013
sI7792
I5014
sI7793
I5015
sI7794
I5016
sI7795
I5017
sI7796
I5018
sI7797
I5019
sI7798
I5020
sI7799
I5021
sI7800
I5022
sI7801
I5023
sI7802
I5024
sI7803
I5025
sI7804
I5026
sI7805
I5027
sI7813
I5028
sI7814
I5029
sI7815
I5030
sI7821
I5031
sI7825
I5032
sI7826
I5033
sI7828
I5034
sI7834
I5035
sI7835
I5036
sI7836
I5037
sI7837
I5038
sI7838
I5039
sI7839
I5040
sI7840
I5041
sI7841
I5042
sI7842
I5043
sI7843
I5044
sI7844
I5045
sI7845
I5046
sI7846
I5047
sI7847
I5048
sI7848
I5049
sI7849
I5050
sI7850
I5051
sI7851
I5052
sI7852
I5053
sI7853
I5054
sI7866
I5055
sI7877
I5056
sI7878
I5057
sI7879
I5058
sI7880
I5059
sI7881
I5060
sI7882
I5061
sI7883
I5062
sI7884
I5063
sI7885
I5064
sI7886
I5065
sI7887
I5066
sI7888
I5067
sI7889
I5068
sI7891
I5069
sI7892
I5070
sI7893
I5071
sI7894
I5072
sI7895
I5073
sI7896
I5074
sI7899
I5075
sI7901
I5076
sI7902
I5077
sI7903
I5078
sI7904
I5079
sI7905
I5080
sI7907
I5081
sI7916
I5082
sI7918
I5083
sI7921
I5084
sI7931
I5085
sI7932
I5086
sI7962
I5087
sI7963
I5088
sI7964
I5089
sI7965
I5090
sI7967
I5091
sI7969
I5092
sI7970
I5093
sI7971
I5094
sI7972
I5095
sI7973
I5096
sI7974
I5097
sI7975
I5098
sI7976
I5099
sI7977
I5100
sI7978
I5101
sI7979
I5102
sI7980
I5103
sI7981
I5104
sI7982
I5105
sI7983
I5106
sI7984
I5107
sI7985
I5108
sI7989
I5109
sI7995
I5110
sI7997
I5111
sI8001
I5112
sI8007
I5113
sI8008
I5114
sI8010
I5115
sI8011
I5116
sI8012
I5117
sI8013
I5118
sI8014
I5119
sI8015
I5120
sI8016
I5121
sI8017
I5122
sI8018
I5123
sI8019
I5124
sI8020
I5125
sI8021
I5126
sI8022
I5127
sI8023
I5128
sI8024
I5129
sI8025
I5130
sI8026
I5131
sI8027
I5132
sI8028
I5133
sI8029
I5134
sI8030
I5135
sI8031
I5136
sI8032
I5137
sI8035
I5138
sI8038
I5139
sI8046
I5140
sI8048
I5141
sI8058
I5142
sI8059
I5143
sI8060
I5144
sI8061
I5145
sI8062
I5146
sI8063
I5147
sI8064
I5148
sI8065
I5149
sI8066
I5150
sI8067
I5151
sI8068
I5152
sI8069
I5153
sI8070
I5154
sI8071
I5155
sI8072
I5156
sI8073
I5157
sI8074
I5158
sI8075
I5159
sI8077
I5160
sI8084
I5161
sI8087
I5162
sI8088
I5163
sI8090
I5164
sI8096
I5165
sI8101
I5166
sI8102
I5167
sI8105
I5168
sI8106
I5169
sI8109
I5170
sI8110
I5171
sI8111
I5172
sI8112
I5173
sI8113
I5174
sI8120
I5175
sI8140
I5176
sI8144
I5177
sI8145
I5178
sI8146
I5179
sI8147
I5180
sI8149
I5181
sI8150
I5182
sI8151
I5183
sI8152
I5184
sI8153
I5185
sI8154
I5186
sI8155
I5187
sI8156
I5188
sI8157
I5189
sI8158
I5190
sI8159
I5191
sI8160
I5192
sI8161
I5193
sI8162
I5194
sI8163
I5195
sI8164
I5196
sI8165
I5197
sI8166
I5198
sI8167
I5199
sI8171
I5200
sI8180
I5201
sI8181
I5202
sI8187
I5203
sI8190
I5204
sI8192
I5205
sI8193
I5206
sI8194
I5207
sI8195
I5208
sI8196
I5209
sI8197
I5210
sI8198
I5211
sI8199
I5212
sI8200
I5213
sI8201
I5214
sI8202
I5215
sI8203
I5216
sI8204
I5217
sI8205
I5218
sI8206
I5219
sI8207
I5220
sI8208
I5221
sI8209
I5222
sI8210
I5223
sI8211
I5224
sI8216
I5225
sI8220
I5226
sI8226
I5227
sI8228
I5228
sI8236
I5229
sI8238
I5230
sI8239
I5231
sI8240
I5232
sI8241
I5233
sI8242
I5234
sI8243
I5235
sI8244
I5236
sI8245
I5237
sI8246
I5238
sI8247
I5239
sI8248
I5240
sI8249
I5241
sI8250
I5242
sI8251
I5243
sI8252
I5244
sI8253
I5245
sI8254
I5246
sI8255
I5247
sI8256
I5248
sI8257
I5249
sI8258
I5250
sI8259
I5251
sI8261
I5252
sI8262
I5253
sI8263
I5254
sI8264
I5255
sI8265
I5256
sI8266
I5257
sI8273
I5258
sI8274
I5259
sI8276
I5260
sI8277
I5261
sI8278
I5262
sI8279
I5263
sI8282
I5264
sI8283
I5265
sI8284
I5266
sI8285
I5267
sI8292
I5268
sI8293
I5269
sI8318
I5270
sI8327
I5271
sI8329
I5272
sI8330
I5273
sI8331
I5274
sI8332
I5275
sI8333
I5276
sI8334
I5277
sI8335
I5278
sI8336
I5279
sI8337
I5280
sI8338
I5281
sI8339
I5282
sI8340
I5283
sI8341
I5284
sI8342
I5285
sI8343
I5286
sI8344
I5287
sI8345
I5288
sI8346
I5289
sI8347
I5290
sI8348
I5291
sI8349
I5292
sI8350
I5293
sI8351
I5294
sI8353
I5295
sI8354
I5296
sI8362
I5297
sI8374
I5298
sI8375
I5299
sI8376
I5300
sI8377
I5301
sI8378
I5302
sI8379
I5303
sI8380
I5304
sI8381
I5305
sI8382
I5306
sI8383
I5307
sI8384
I5308
sI8385
I5309
sI8386
I5310
sI8387
I5311
sI8388
I5312
sI8389
I5313
sI8390
I5314
sI8396
I5315
sI8397
I5316
sI8398
I5317
sI8404
I5318
sI8406
I5319
sI8411
I5320
sI8416
I5321
sI8419
I5322
sI8420
I5323
sI8421
I5324
sI8422
I5325
sI8423
I5326
sI8424
I5327
sI8425
I5328
sI8426
I5329
sI8427
I5330
sI8428
I5331
sI8429
I5332
sI8430
I5333
sI8431
I5334
sI8432
I5335
sI8433
I5336
sI8434
I5337
sI8435
I5338
sI8436
I5339
sI8437
I5340
sI8438
I5341
sI8439
I5342
sI8440
I5343
sI8441
I5344
sI8442
I5345
sI8443
I5346
sI8444
I5347
sI8445
I5348
sI8446
I5349
sI8447
I5350
sI8457
I5351
sI8458
I5352
sI8459
I5353
sI8462
I5354
sI8463
I5355
sI8464
I5356
sI8466
I5357
sI8472
I5358
sI8497
I5359
sI8507
I5360
sI8508
I5361
sI8509
I5362
sI8510
I5363
sI8511
I5364
sI8512
I5365
sI8513
I5366
sI8514
I5367
sI8515
I5368
sI8516
I5369
sI8517
I5370
sI8518
I5371
sI8519
I5372
sI8520
I5373
sI8521
I5374
sI8522
I5375
sI8523
I5376
sI8524
I5377
sI8525
I5378
sI8526
I5379
sI8527
I5380
sI8528
I5381
sI8529
I5382
sI8530
I5383
sI8531
I5384
sI8532
I5385
sI8551
I5386
sI8555
I5387
sI8556
I5388
sI8557
I5389
sI8558
I5390
sI8559
I5391
sI8560
I5392
sI8561
I5393
sI8562
I5394
sI8563
I5395
sI8564
I5396
sI8565
I5397
sI8566
I5398
sI8567
I5399
sI8568
I5400
sI8569
I5401
sI8571
I5402
sI8573
I5403
sI8576
I5404
sI8577
I5405
sI8578
I5406
sI8580
I5407
sI8584
I5408
sI8585
I5409
sI8586
I5410
sI8591
I5411
sI8595
I5412
sI8596
I5413
sI8597
I5414
sI8600
I5415
sI8601
I5416
sI8602
I5417
sI8603
I5418
sI8604
I5419
sI8605
I5420
sI8606
I5421
sI8607
I5422
sI8608
I5423
sI8609
I5424
sI8610
I5425
sI8611
I5426
sI8612
I5427
sI8613
I5428
sI8614
I5429
sI8615
I5430
sI8616
I5431
sI8617
I5432
sI8618
I5433
sI8619
I5434
sI8620
I5435
sI8621
I5436
sI8622
I5437
sI8623
I5438
sI8624
I5439
sI8625
I5440
sI8626
I5441
sI8627
I5442
sI8628
I5443
sI8629
I5444
sI8637
I5445
sI8638
I5446
sI8643
I5447
sI8647
I5448
sI8651
I5449
sI8654
I5450
sI8659
I5451
sI8688
I5452
sI8689
I5453
sI8690
I5454
sI8691
I5455
sI8692
I5456
sI8693
I5457
sI8694
I5458
sI8695
I5459
sI8696
I5460
sI8697
I5461
sI8698
I5462
sI8699
I5463
sI8700
I5464
sI8701
I5465
sI8702
I5466
sI8703
I5467
sI8704
I5468
sI8705
I5469
sI8706
I5470
sI8707
I5471
sI8708
I5472
sI8709
I5473
sI8710
I5474
sI8711
I5475
sI8712
I5476
sI8713
I5477
sI8716
I5478
sI8722
I5479
sI8723
I5480
sI8734
I5481
sI8735
I5482
sI8736
I5483
sI8737
I5484
sI8738
I5485
sI8739
I5486
sI8740
I5487
sI8741
I5488
sI8742
I5489
sI8743
I5490
sI8744
I5491
sI8745
I5492
sI8746
I5493
sI8747
I5494
sI8748
I5495
sI8749
I5496
sI8756
I5497
sI8757
I5498
sI8758
I5499
sI8765
I5500
sI8766
I5501
sI8781
I5502
sI8782
I5503
sI8783
I5504
sI8784
I5505
sI8785
I5506
sI8786
I5507
sI8787
I5508
sI8788
I5509
sI8789
I5510
sI8790
I5511
sI8791
I5512
sI8792
I5513
sI8793
I5514
sI8794
I5515
sI8795
I5516
sI8796
I5517
sI8797
I5518
sI8798
I5519
sI8799
I5520
sI8800
I5521
sI8801
I5522
sI8802
I5523
sI8803
I5524
sI8804
I5525
sI8805
I5526
sI8806
I5527
sI8807
I5528
sI8808
I5529
sI8809
I5530
sI8810
I5531
sI8818
I5532
sI8819
I5533
sI8823
I5534
sI8824
I5535
sI8830
I5536
sI8831
I5537
sI8834
I5538
sI8839
I5539
sI8840
I5540
sI8845
I5541
sI8855
I5542
sI8858
I5543
sI8870
I5544
sI8871
I5545
sI8872
I5546
sI8873
I5547
sI8874
I5548
sI8875
I5549
sI8876
I5550
sI8877
I5551
sI8878
I5552
sI8879
I5553
sI8880
I5554
sI8881
I5555
sI8882
I5556
sI8883
I5557
sI8884
I5558
sI8885
I5559
sI8886
I5560
sI8887
I5561
sI8888
I5562
sI8889
I5563
sI8890
I5564
sI8891
I5565
sI8892
I5566
sI8894
I5567
sI8901
I5568
sI8902
I5569
sI8903
I5570
sI8907
I5571
sI8910
I5572
sI8912
I5573
sI8916
I5574
sI8917
I5575
sI8918
I5576
sI8919
I5577
sI8920
I5578
sI8921
I5579
sI8922
I5580
sI8923
I5581
sI8924
I5582
sI8925
I5583
sI8926
I5584
sI8927
I5585
sI8928
I5586
sI8929
I5587
sI8930
I5588
sI8931
I5589
sI8933
I5590
sI8935
I5591
sI8936
I5592
sI8937
I5593
sI8940
I5594
sI8943
I5595
sI8944
I5596
sI8964
I5597
sI8965
I5598
sI8966
I5599
sI8967
I5600
sI8968
I5601
sI8969
I5602
sI8970
I5603
sI8971
I5604
sI8972
I5605
sI8973
I5606
sI8974
I5607
sI8975
I5608
sI8976
I5609
sI8977
I5610
sI8978
I5611
sI8979
I5612
sI8980
I5613
sI8981
I5614
sI8982
I5615
sI8983
I5616
sI8984
I5617
sI8985
I5618
sI8986
I5619
sI8987
I5620
sI8988
I5621
sI8989
I5622
sI8990
I5623
sI8991
I5624
sI8992
I5625
sI8993
I5626
sI8999
I5627
sI9000
I5628
sI9001
I5629
sI9002
I5630
sI9004
I5631
sI9005
I5632
sI9007
I5633
sI9008
I5634
sI9009
I5635
sI9013
I5636
sI9014
I5637
sI9020
I5638
sI9021
I5639
sI9039
I5640
sI9050
I5641
sI9051
I5642
sI9052
I5643
sI9053
I5644
sI9054
I5645
sI9055
I5646
sI9056
I5647
sI9057
I5648
sI9058
I5649
sI9059
I5650
sI9060
I5651
sI9061
I5652
sI9062
I5653
sI9063
I5654
sI9064
I5655
sI9065
I5656
sI9066
I5657
sI9067
I5658
sI9068
I5659
sI9069
I5660
sI9070
I5661
sI9071
I5662
sI9081
I5663
sI9089
I5664
sI9096
I5665
sI9097
I5666
sI9098
I5667
sI9099
I5668
sI9100
I5669
sI9101
I5670
sI9102
I5671
sI9103
I5672
sI9104
I5673
sI9105
I5674
sI9106
I5675
sI9107
I5676
sI9108
I5677
sI9109
I5678
sI9110
I5679
sI9111
I5680
sI9113
I5681
sI9114
I5682
sI9115
I5683
sI9118
I5684
sI9120
I5685
sI9123
I5686
sI9125
I5687
sI9130
I5688
sI9133
I5689
sI9138
I5690
sI9139
I5691
sI9141
I5692
sI9142
I5693
sI9144
I5694
sI9145
I5695
sI9147
I5696
sI9150
I5697
sI9151
I5698
sI9152
I5699
sI9153
I5700
sI9154
I5701
sI9155
I5702
sI9156
I5703
sI9157
I5704
sI9158
I5705
sI9160
I5706
sI9161
I5707
sI9162
I5708
sI9163
I5709
sI9164
I5710
sI9165
I5711
sI9166
I5712
sI9167
I5713
sI9168
I5714
sI9169
I5715
sI9170
I5716
sI9171
I5717
sI9172
I5718
sI9173
I5719
sI9174
I5720
sI9175
I5721
sI9176
I5722
sI9177
I5723
sI9178
I5724
sI9179
I5725
sI9180
I5726
sI9181
I5727
sI9182
I5728
sI9183
I5729
sI9184
I5730
sI9188
I5731
sI9196
I5732
sI9202
I5733
sI9206
I5734
sI9214
I5735
sI9222
I5736
sI9231
I5737
sI9232
I5738
sI9233
I5739
sI9234
I5740
sI9235
I5741
sI9236
I5742
sI9237
I5743
sI9238
I5744
sI9239
I5745
sI9240
I5746
sI9241
I5747
sI9242
I5748
sI9243
I5749
sI9244
I5750
sI9245
I5751
sI9246
I5752
sI9247
I5753
sI9248
I5754
sI9249
I5755
sI9250
I5756
sI9251
I5757
sI9253
I5758
sI9254
I5759
sI9266
I5760
sI9268
I5761
sI9276
I5762
sI9277
I5763
sI9278
I5764
sI9279
I5765
sI9280
I5766
sI9281
I5767
sI9282
I5768
sI9283
I5769
sI9284
I5770
sI9285
I5771
sI9286
I5772
sI9287
I5773
sI9288
I5774
sI9289
I5775
sI9290
I5776
sI9291
I5777
sI9292
I5778
sI9293
I5779
sI9294
I5780
sI9295
I5781
sI9296
I5782
sI9298
I5783
sI9303
I5784
sI9304
I5785
sI9318
I5786
sI9321
I5787
sI9322
I5788
sI9323
I5789
sI9325
I5790
sI9329
I5791
sI9330
I5792
sI9331
I5793
sI9332
I5794
sI9333
I5795
sI9334
I5796
sI9335
I5797
sI9336
I5798
sI9337
I5799
sI9338
I5800
sI9340
I5801
sI9341
I5802
sI9342
I5803
sI9343
I5804
sI9349
I5805
sI9350
I5806
sI9351
I5807
sI9352
I5808
sI9353
I5809
sI9354
I5810
sI9356
I5811
sI9357
I5812
sI9358
I5813
sI9360
I5814
sI9361
I5815
sI9362
I5816
sI9363
I5817
sI9364
I5818
sI9365
I5819
sI9372
I5820
sI9375
I5821
sI9376
I5822
sI9377
I5823
sI9378
I5824
sI9379
I5825
sI9380
I5826
sI9382
I5827
sI9391
I5828
sI9400
I5829
sI9401
I5830
sI9407
I5831
sI9411
I5832
sI9412
I5833
sI9413
I5834
sI9414
I5835
sI9415
I5836
sI9416
I5837
sI9417
I5838
sI9418
I5839
sI9419
I5840
sI9420
I5841
sI9421
I5842
sI9422
I5843
sI9423
I5844
sI9424
I5845
sI9425
I5846
sI9426
I5847
sI9427
I5848
sI9428
I5849
sI9429
I5850
sI9430
I5851
sI9433
I5852
sI9437
I5853
sI9445
I5854
sI9446
I5855
sI9447
I5856
sI9451
I5857
sI9455
I5858
sI9456
I5859
sI9457
I5860
sI9458
I5861
sI9459
I5862
sI9460
I5863
sI9461
I5864
sI9462
I5865
sI9463
I5866
sI9464
I5867
sI9465
I5868
sI9466
I5869
sI9467
I5870
sI9468
I5871
sI9469
I5872
sI9470
I5873
sI9472
I5874
sI9473
I5875
sI9474
I5876
sI9475
I5877
sI9477
I5878
sI9478
I5879
sI9480
I5880
sI9493
I5881
sI9503
I5882
sI9508
I5883
sI9510
I5884
sI9511
I5885
sI9512
I5886
sI9513
I5887
sI9514
I5888
sI9515
I5889
sI9516
I5890
sI9517
I5891
sI9518
I5892
sI9519
I5893
sI9520
I5894
sI9521
I5895
sI9522
I5896
sI9523
I5897
sI9524
I5898
sI9525
I5899
sI9526
I5900
sI9533
I5901
sI9534
I5902
sI9537
I5903
sI9538
I5904
sI9539
I5905
sI9540
I5906
sI9541
I5907
sI9543
I5908
sI9547
I5909
sI9548
I5910
sI9552
I5911
sI9553
I5912
sI9554
I5913
sI9555
I5914
sI9556
I5915
sI9557
I5916
sI9558
I5917
sI9559
I5918
sI9560
I5919
sI9567
I5920
sI9571
I5921
sI9572
I5922
sI9573
I5923
sI9584
I5924
sI9592
I5925
sI9593
I5926
sI9594
I5927
sI9595
I5928
sI9596
I5929
sI9597
I5930
sI9598
I5931
sI9599
I5932
sI9600
I5933
sI9601
I5934
sI9602
I5935
sI9603
I5936
sI9604
I5937
sI9605
I5938
sI9606
I5939
sI9607
I5940
sI9608
I5941
sI9609
I5942
sI9610
I5943
sI9611
I5944
sI9612
I5945
sI9627
I5946
sI9635
I5947
sI9636
I5948
sI9637
I5949
sI9638
I5950
sI9639
I5951
sI9640
I5952
sI9641
I5953
sI9642
I5954
sI9643
I5955
sI9644
I5956
sI9645
I5957
sI9646
I5958
sI9647
I5959
sI9648
I5960
sI9649
I5961
sI9650
I5962
sI9651
I5963
sI9652
I5964
sI9653
I5965
sI9654
I5966
sI9655
I5967
sI9658
I5968
sI9659
I5969
sI9660
I5970
sI9663
I5971
sI9685
I5972
sI9689
I5973
sI9690
I5974
sI9691
I5975
sI9692
I5976
sI9693
I5977
sI9694
I5978
sI9695
I5979
sI9696
I5980
sI9697
I5981
sI9698
I5982
sI9699
I5983
sI9700
I5984
sI9701
I5985
sI9702
I5986
sI9703
I5987
sI9704
I5988
sI9705
I5989
sI9706
I5990
sI9707
I5991
sI9708
I5992
sI9712
I5993
sI9713
I5994
sI9714
I5995
sI9716
I5996
sI9718
I5997
sI9719
I5998
sI9720
I5999
sI9722
I6000
sI9723
I6001
sI9725
I6002
sI9728
I6003
sI9730
I6004
sI9731
I6005
sI9732
I6006
sI9733
I6007
sI9734
I6008
sI9735
I6009
sI9736
I6010
sI9737
I6011
sI9738
I6012
sI9739
I6013
sI9740
I6014
sI9741
I6015
sI9746
I6016
sI9751
I6017
sI9752
I6018
sI9759
I6019
sI9774
I6020
sI9775
I6021
sI9776
I6022
sI9777
I6023
sI9778
I6024
sI9779
I6025
sI9780
I6026
sI9781
I6027
sI9782
I6028
sI9783
I6029
sI9784
I6030
sI9785
I6031
sI9786
I6032
sI9787
I6033
sI9788
I6034
sI9789
I6035
sI9790
I6036
sI9815
I6037
sI9816
I6038
sI9817
I6039
sI9818
I6040
sI9819
I6041
sI9820
I6042
sI9821
I6043
sI9822
I6044
sI9823
I6045
sI9824
I6046
sI9825
I6047
sI9826
I6048
sI9827
I6049
sI9828
I6050
sI9829
I6051
sI9830
I6052
sI9831
I6053
sI9832
I6054
sI9833
I6055
sI9834
I6056
sI9836
I6057
sI9837
I6058
sI9838
I6059
sI9839
I6060
sI9841
I6061
sI9842
I6062
sI9849
I6063
sI9867
I6064
sI9868
I6065
sI9869
I6066
sI9870
I6067
sI9871
I6068
sI9872
I6069
sI9873
I6070
sI9874
I6071
sI9875
I6072
sI9876
I6073
sI9877
I6074
sI9878
I6075
sI9879
I6076
sI9880
I6077
sI9881
I6078
sI9882
I6079
sI9883
I6080
sI9884
I6081
sI9885
I6082
sI9886
I6083
sI9887
I6084
sI9889
I6085
sI9891
I6086
sI9892
I6087
sI9894
I6088
sI9895
I6089
sI9897
I6090
sI9898
I6091
sI9899
I6092
sI9900
I6093
sI9901
I6094
sI9902
I6095
sI9903
I6096
sI9906
I6097
sI9909
I6098
sI9910
I6099
sI9911
I6100
sI9912
I6101
sI9913
I6102
sI9918
I6103
sI9919
I6104
sI9920
I6105
sI9921
I6106
sI9922
I6107
sI9932
I6108
sI9942
I6109
sI9948
I6110
sI9949
I6111
sI9953
I6112
sI9954
I6113
sI9955
I6114
sI9956
I6115
sI9957
I6116
sI9958
I6117
sI9959
I6118
sI9960
I6119
sI9961
I6120
sI9962
I6121
sI9963
I6122
sI9964
I6123
sI9965
I6124
sI9966
I6125
sI9967
I6126
sI9968
I6127
sI9969
I6128
sI9971
I6129
sI9972
I6130
sI9974
I6131
sI9975
I6132
sI9994
I6133
sI9996
I6134
sI9997
I6135
sI9998
I6136
sI9999
I6137
sI10000
I6138
sI10001
I6139
sI10002
I6140
sI10003
I6141
sI10004
I6142
sI10005
I6143
sI10006
I6144
sI10007
I6145
sI10009
I6146
sI10011
I6147
sI10012
I6148
sI10013
I6149
sI10014
I6150
sI10017
I6151
sI10018
I6152
sI10023
I6153
sI10032
I6154
sI10040
I6155
sI10044
I6156
sI10045
I6157
sI10046
I6158
sI10047
I6159
sI10048
I6160
sI10049
I6161
sI10050
I6162
sI10051
I6163
sI10052
I6164
sI10053
I6165
sI10054
I6166
sI10055
I6167
sI10056
I6168
sI10057
I6169
sI10058
I6170
sI10059
I6171
sI10060
I6172
sI10061
I6173
sI10062
I6174
sI10063
I6175
sI10064
I6176
sI10065
I6177
sI10066
I6178
sI10067
I6179
sI10068
I6180
sI10069
I6181
sI10070
I6182
sI10071
I6183
sI10072
I6184
sI10073
I6185
sI10074
I6186
sI10075
I6187
sI10077
I6188
sI10078
I6189
sI10079
I6190
sI10080
I6191
sI10081
I6192
sI10082
I6193
sI10093
I6194
sI10094
I6195
sI10095
I6196
sI10096
I6197
sI10100
I6198
sI10101
I6199
sI10102
I6200
sI10103
I6201
sI10104
I6202
sI10122
I6203
sI10128
I6204
sI10129
I6205
sI10134
I6206
sI10135
I6207
sI10136
I6208
sI10137
I6209
sI10138
I6210
sI10139
I6211
sI10140
I6212
sI10141
I6213
sI10142
I6214
sI10143
I6215
sI10144
I6216
sI10145
I6217
sI10146
I6218
sI10147
I6219
sI10148
I6220
sI10149
I6221
sI10151
I6222
sI10153
I6223
sI10174
I6224
sI10177
I6225
sI10178
I6226
sI10179
I6227
sI10180
I6228
sI10181
I6229
sI10182
I6230
sI10183
I6231
sI10184
I6232
sI10185
I6233
sI10186
I6234
sI10187
I6235
sI10190
I6236
sI10191
I6237
sI10192
I6238
sI10193
I6239
sI10194
I6240
sI10196
I6241
sI10197
I6242
sI10220
I6243
sI10222
I6244
sI10225
I6245
sI10226
I6246
sI10227
I6247
sI10228
I6248
sI10229
I6249
sI10230
I6250
sI10231
I6251
sI10232
I6252
sI10233
I6253
sI10234
I6254
sI10235
I6255
sI10236
I6256
sI10237
I6257
sI10238
I6258
sI10239
I6259
sI10240
I6260
sI10241
I6261
sI10242
I6262
sI10243
I6263
sI10244
I6264
sI10245
I6265
sI10246
I6266
sI10247
I6267
sI10249
I6268
sI10252
I6269
sI10253
I6270
sI10254
I6271
sI10255
I6272
sI10256
I6273
sI10257
I6274
sI10265
I6275
sI10267
I6276
sI10270
I6277
sI10271
I6278
sI10274
I6279
sI10277
I6280
sI10284
I6281
sI10285
I6282
sI10287
I6283
sI10289
I6284
sI10301
I6285
sI10306
I6286
sI10307
I6287
sI10308
I6288
sI10314
I6289
sI10315
I6290
sI10316
I6291
sI10317
I6292
sI10318
I6293
sI10319
I6294
sI10320
I6295
sI10321
I6296
sI10322
I6297
sI10323
I6298
sI10324
I6299
sI10325
I6300
sI10326
I6301
sI10327
I6302
sI10328
I6303
sI10357
I6304
sI10358
I6305
sI10359
I6306
sI10360
I6307
sI10361
I6308
sI10362
I6309
sI10363
I6310
sI10364
I6311
sI10365
I6312
sI10366
I6313
sI10367
I6314
sI10371
I6315
sI10372
I6316
sI10373
I6317
sI10400
I6318
sI10402
I6319
sI10404
I6320
sI10405
I6321
sI10406
I6322
sI10407
I6323
sI10408
I6324
sI10409
I6325
sI10410
I6326
sI10411
I6327
sI10412
I6328
sI10413
I6329
sI10414
I6330
sI10415
I6331
sI10416
I6332
sI10417
I6333
sI10418
I6334
sI10419
I6335
sI10420
I6336
sI10421
I6337
sI10422
I6338
sI10423
I6339
sI10424
I6340
sI10425
I6341
sI10426
I6342
sI10427
I6343
sI10429
I6344
sI10442
I6345
sI10455
I6346
sI10456
I6347
sI10457
I6348
sI10458
I6349
sI10474
I6350
sI10475
I6351
sI10477
I6352
sI10480
I6353
sI10489
I6354
sI10490
I6355
sI10493
I6356
sI10494
I6357
sI10495
I6358
sI10496
I6359
sI10497
I6360
sI10498
I6361
sI10499
I6362
sI10500
I6363
sI10501
I6364
sI10502
I6365
sI10503
I6366
sI10504
I6367
sI10505
I6368
sI10533
I6369
sI10537
I6370
sI10538
I6371
sI10539
I6372
sI10540
I6373
sI10541
I6374
sI10542
I6375
sI10543
I6376
sI10544
I6377
sI10545
I6378
sI10546
I6379
sI10547
I6380
sI10548
I6381
sI10556
I6382
sI10579
I6383
sI10584
I6384
sI10586
I6385
sI10587
I6386
sI10588
I6387
sI10589
I6388
sI10590
I6389
sI10591
I6390
sI10592
I6391
sI10593
I6392
sI10594
I6393
sI10595
I6394
sI10596
I6395
sI10597
I6396
sI10598
I6397
sI10599
I6398
sI10600
I6399
sI10601
I6400
sI10602
I6401
sI10603
I6402
sI10604
I6403
sI10605
I6404
sI10606
I6405
sI10607
I6406
sI10609
I6407
sI10614
I6408
sI10617
I6409
sI10621
I6410
sI10626
I6411
sI10639
I6412
sI10658
I6413
sI10674
I6414
sI10675
I6415
sI10676
I6416
sI10677
I6417
sI10678
I6418
sI10679
I6419
sI10680
I6420
sI10681
I6421
sI10682
I6422
sI10683
I6423
sI10684
I6424
sI10685
I6425
sI10711
I6426
sI10714
I6427
sI10717
I6428
sI10718
I6429
sI10719
I6430
sI10720
I6431
sI10721
I6432
sI10722
I6433
sI10723
I6434
sI10724
I6435
sI10725
I6436
sI10726
I6437
sI10759
I6438
sI10761
I6439
sI10765
I6440
sI10766
I6441
sI10767
I6442
sI10768
I6443
sI10769
I6444
sI10770
I6445
sI10771
I6446
sI10772
I6447
sI10773
I6448
sI10774
I6449
sI10775
I6450
sI10776
I6451
sI10777
I6452
sI10778
I6453
sI10779
I6454
sI10780
I6455
sI10781
I6456
sI10782
I6457
sI10783
I6458
sI10784
I6459
sI10785
I6460
sI10786
I6461
sI10787
I6462
sI10789
I6463
sI10793
I6464
sI10794
I6465
sI10798
I6466
sI10800
I6467
sI10801
I6468
sI10802
I6469
sI10803
I6470
sI10842
I6471
sI10844
I6472
sI10854
I6473
sI10855
I6474
sI10856
I6475
sI10857
I6476
sI10858
I6477
sI10859
I6478
sI10860
I6479
sI10861
I6480
sI10862
I6481
sI10863
I6482
sI10864
I6483
sI10867
I6484
sI10870
I6485
sI10872
I6486
sI10894
I6487
sI10898
I6488
sI10899
I6489
sI10900
I6490
sI10901
I6491
sI10902
I6492
sI10903
I6493
sI10904
I6494
sI10905
I6495
sI10906
I6496
sI10910
I6497
sI10912
I6498
sI10920
I6499
sI10937
I6500
sI10941
I6501
sI10942
I6502
sI10944
I6503
sI10947
I6504
sI10948
I6505
sI10949
I6506
sI10950
I6507
sI10951
I6508
sI10952
I6509
sI10953
I6510
sI10954
I6511
sI10955
I6512
sI10956
I6513
sI10957
I6514
sI10958
I6515
sI10959
I6516
sI10960
I6517
sI10961
I6518
sI10962
I6519
sI10963
I6520
sI10964
I6521
sI10965
I6522
sI10966
I6523
sI10968
I6524
sI10969
I6525
sI10972
I6526
sI10976
I6527
sI10977
I6528
sI10979
I6529
sI10980
I6530
sI10981
I6531
sI10982
I6532
sI10984
I6533
sI11005
I6534
sI11029
I6535
sI11030
I6536
sI11033
I6537
sI11034
I6538
sI11035
I6539
sI11036
I6540
sI11037
I6541
sI11038
I6542
sI11039
I6543
sI11040
I6544
sI11041
I6545
sI11042
I6546
sI11043
I6547
sI11044
I6548
sI11045
I6549
sI11052
I6550
sI11053
I6551
sI11076
I6552
sI11078
I6553
sI11079
I6554
sI11080
I6555
sI11081
I6556
sI11082
I6557
sI11083
I6558
sI11084
I6559
sI11087
I6560
sI11091
I6561
sI11098
I6562
sI11099
I6563
sI11108
I6564
sI11119
I6565
sI11120
I6566
sI11123
I6567
sI11124
I6568
sI11127
I6569
sI11128
I6570
sI11129
I6571
sI11130
I6572
sI11131
I6573
sI11132
I6574
sI11133
I6575
sI11134
I6576
sI11135
I6577
sI11136
I6578
sI11137
I6579
sI11138
I6580
sI11139
I6581
sI11140
I6582
sI11141
I6583
sI11142
I6584
sI11143
I6585
sI11144
I6586
sI11145
I6587
sI11146
I6588
sI11148
I6589
sI11149
I6590
sI11151
I6591
sI11153
I6592
sI11154
I6593
sI11155
I6594
sI11156
I6595
sI11161
I6596
sI11164
I6597
sI11169
I6598
sI11182
I6599
sI11185
I6600
sI11195
I6601
sI11213
I6602
sI11214
I6603
sI11215
I6604
sI11216
I6605
sI11217
I6606
sI11218
I6607
sI11219
I6608
sI11220
I6609
sI11221
I6610
sI11222
I6611
sI11223
I6612
sI11236
I6613
sI11239
I6614
sI11248
I6615
sI11253
I6616
sI11259
I6617
sI11260
I6618
sI11261
I6619
sI11262
I6620
sI11264
I6621
sI11267
I6622
sI11276
I6623
sI11289
I6624
sI11305
I6625
sI11307
I6626
sI11308
I6627
sI11309
I6628
sI11310
I6629
sI11311
I6630
sI11312
I6631
sI11313
I6632
sI11314
I6633
sI11315
I6634
sI11316
I6635
sI11317
I6636
sI11318
I6637
sI11319
I6638
sI11320
I6639
sI11321
I6640
sI11322
I6641
sI11323
I6642
sI11324
I6643
sI11325
I6644
sI11326
I6645
sI11328
I6646
sI11329
I6647
sI11335
I6648
sI11336
I6649
sI11337
I6650
sI11339
I6651
sI11343
I6652
sI11345
I6653
sI11367
I6654
sI11388
I6655
sI11389
I6656
sI11392
I6657
sI11393
I6658
sI11394
I6659
sI11395
I6660
sI11396
I6661
sI11397
I6662
sI11398
I6663
sI11399
I6664
sI11400
I6665
sI11401
I6666
sI11403
I6667
sI11423
I6668
sI11433
I6669
sI11437
I6670
sI11438
I6671
sI11439
I6672
sI11440
I6673
sI11441
I6674
sI11444
I6675
sI11456
I6676
sI11457
I6677
sI11468
I6678
sI11469
I6679
sI11482
I6680
sI11495
I6681
sI11497
I6682
sI11498
I6683
sI11499
I6684
sI11500
I6685
sI11501
I6686
sI11502
I6687
sI11503
I6688
sI11504
I6689
sI11505
I6690
sI11508
I6691
sI11509
I6692
sI11511
I6693
sI11513
I6694
sI11515
I6695
sI11516
I6696
sI11517
I6697
sI11518
I6698
sI11519
I6699
sI11520
I6700
sI11521
I6701
sI11530
I6702
sI11531
I6703
sI11546
I6704
sI11573
I6705
sI11574
I6706
sI11575
I6707
sI11576
I6708
sI11577
I6709
sI11578
I6710
sI11579
I6711
sI11580
I6712
sI11581
I6713
sI11582
I6714
sI11596
I6715
sI11604
I6716
sI11606
I6717
sI11613
I6718
sI11616
I6719
sI11617
I6720
sI11631
I6721
sI11633
I6722
sI11640
I6723
sI11648
I6724
sI11649
I6725
sI11671
I6726
sI11673
I6727
sI11675
I6728
sI11679
I6729
sI11680
I6730
sI11681
I6731
sI11682
I6732
sI11683
I6733
sI11684
I6734
sI11687
I6735
sI11692
I6736
sI11695
I6737
sI11696
I6738
sI11697
I6739
sI11698
I6740
sI11699
I6741
sI11700
I6742
sI11707
I6743
sI11710
I6744
sI11711
I6745
sI11715
I6746
sI11737
I6747
sI11738
I6748
sI11745
I6749
sI11751
I6750
sI11752
I6751
sI11753
I6752
sI11754
I6753
sI11755
I6754
sI11756
I6755
sI11757
I6756
sI11758
I6757
sI11759
I6758
sI11762
I6759
sI11784
I6760
sI11785
I6761
sI11787
I6762
sI11795
I6763
sI11797
I6764
sI11803
I6765
sI11811
I6766
sI11830
I6767
sI11861
I6768
sI11862
I6769
sI11863
I6770
sI11864
I6771
sI11870
I6772
sI11872
I6773
sI11874
I6774
sI11875
I6775
sI11876
I6776
sI11877
I6777
sI11878
I6778
sI11879
I6779
sI11880
I6780
sI11881
I6781
sI11884
I6782
sI11896
I6783
sI11928
I6784
sI11932
I6785
sI11933
I6786
sI11934
I6787
sI11935
I6788
sI11936
I6789
sI11937
I6790
sI11938
I6791
sI11941
I6792
sI11967
I6793
sI11969
I6794
sI11970
I6795
sI11971
I6796
sI11977
I6797
sI11989
I6798
sI11990
I6799
sI11991
I6800
sI12003
I6801
sI12012
I6802
sI12042
I6803
sI12043
I6804
sI12044
I6805
sI12045
I6806
sI12046
I6807
sI12049
I6808
sI12052
I6809
sI12053
I6810
sI12054
I6811
sI12055
I6812
sI12056
I6813
sI12057
I6814
sI12058
I6815
sI12059
I6816
sI12061
I6817
sI12062
I6818
sI12085
I6819
sI12092
I6820
sI12112
I6821
sI12113
I6822
sI12114
I6823
sI12115
I6824
sI12116
I6825
sI12117
I6826
sI12127
I6827
sI12128
I6828
sI12142
I6829
sI12150
I6830
sI12172
I6831
sI12175
I6832
sI12208
I6833
sI12222
I6834
sI12223
I6835
sI12228
I6836
sI12229
I6837
sI12232
I6838
sI12233
I6839
sI12234
I6840
sI12235
I6841
sI12236
I6842
sI12237
I6843
sI12238
I6844
sI12239
I6845
sI12262
I6846
sI12266
I6847
sI12288
I6848
sI12292
I6849
sI12293
I6850
sI12294
I6851
sI12295
I6852
sI12296
I6853
sI12297
I6854
sI12300
I6855
sI12305
I6856
sI12330
I6857
sI12332
I6858
sI12335
I6859
sI12343
I6860
sI12346
I6861
sI12347
I6862
sI12348
I6863
sI12349
I6864
sI12351
I6865
sI12355
I6866
sI12356
I6867
sI12402
I6868
sI12410
I6869
sI12412
I6870
sI12413
I6871
sI12414
I6872
sI12415
I6873
sI12416
I6874
sI12418
I6875
sI12419
I6876
sI12421
I6877
sI12472
I6878
sI12473
I6879
sI12474
I6880
sI12475
I6881
sI12476
I6882
sI12477
I6883
sI12489
I6884
sI12512
I6885
sI12514
I6886
sI12524
I6887
sI12540
I6888
sI12542
I6889
sI12544
I6890
sI12545
I6891
sI12568
I6892
sI12584
I6893
sI12592
I6894
sI12593
I6895
sI12595
I6896
sI12598
I6897
sI12599
I6898
sI12630
I6899
sI12652
I6900
sI12653
I6901
sI12654
I6902
sI12655
I6903
sI12659
I6904
sI12660
I6905
sI12661
I6906
sI12665
I6907
sI12667
I6908
sI12668
I6909
sI12677
I6910
sI12692
I6911
sI12720
I6912
sI12724
I6913
sI12725
I6914
sI12726
I6915
sI12728
I6916
sI12745
I6917
sI12747
I6918
sI12772
I6919
sI12773
I6920
sI12775
I6921
sI12776
I6922
sI12778
I6923
sI12802
I6924
sI12832
I6925
sI12833
I6926
sI12834
I6927
sI12835
I6928
sI12836
I6929
sI12839
I6930
sI12840
I6931
sI12843
I6932
sI12846
I6933
sI12848
I6934
sI12849
I6935
sI12850
I6936
sI12851
I6937
sI12853
I6938
sI12871
I6939
sI12877
I6940
sI12882
I6941
sI12891
I6942
sI12892
I6943
sI12905
I6944
sI12906
I6945
sI12907
I6946
sI12910
I6947
sI12911
I6948
sI12940
I6949
sI12950
I6950
sI12951
I6951
sI12952
I6952
sI12954
I6953
sI12955
I6954
sI12957
I6955
sI12958
I6956
sI12982
I6957
sI12985
I6958
sI13007
I6959
sI13013
I6960
sI13014
I6961
sI13015
I6962
sI13016
I6963
sI13017
I6964
sI13018
I6965
sI13020
I6966
sI13027
I6967
sI13028
I6968
sI13030
I6969
sI13031
I6970
sI13032
I6971
sI13035
I6972
sI13050
I6973
sI13051
I6974
sI13053
I6975
sI13087
I6976
sI13091
I6977
sI13122
I6978
sI13129
I6979
sI13132
I6980
sI13157
I6981
sI13184
I6982
sI13185
I6983
sI13195
I6984
sI13196
I6985
sI13199
I6986
sI13203
I6987
sI13208
I6988
sI13210
I6989
sI13212
I6990
sI13213
I6991
sI13215
I6992
sI13216
I6993
sI13217
I6994
sI13228
I6995
sI13232
I6996
sI13303
I6997
sI13309
I6998
sI13375
I6999
sI13380
I7000
sI13381
I7001
sI13382
I7002
sI13385
I7003
sI13388
I7004
sI13396
I7005
sI13402
I7006
sI13403
I7007
sI13404
I7008
sI13448
I7009
sI13472
I7010
sI13479
I7011
sI13485
I7012
sI13488
I7013
sI13514
I7014
sI13515
I7015
sI13532
I7016
sI13540
I7017
sI13555
I7018
sI13556
I7019
sI13557
I7020
sI13558
I7021
sI13560
I7022
sI13561
I7023
sI13562
I7024
sI13563
I7025
sI13564
I7026
sI13566
I7027
sI13567
I7028
sI13569
I7029
sI13571
I7030
sI13572
I7031
sI13574
I7032
sI13575
I7033
sI13597
I7034
sI13608
I7035
sI13610
I7036
sI13625
I7037
sI13634
I7038
sI13635
I7039
sI13650
I7040
sI13659
I7041
sI13670
I7042
sI13691
I7043
sI13693
I7044
sI13738
I7045
sI13739
I7046
sI13740
I7047
sI13741
I7048
sI13742
I7049
sI13745
I7050
sI13749
I7051
sI13750
I7052
sI13756
I7053
sI13760
I7054
sI13800
I7055
sI13805
I7056
sI13816
I7057
sI13819
I7058
sI13820
I7059
sI13840
I7060
sI13848
I7061
sI13851
I7062
sI13855
I7063
sI13865
I7064
sI13887
I7065
sI13903
I7066
sI13904
I7067
sI13905
I7068
sI13915
I7069
sI13916
I7070
sI13917
I7071
sI13918
I7072
sI13919
I7073
sI13920
I7074
sI13921
I7075
sI13922
I7076
sI13925
I7077
sI13940
I7078
sI13951
I7079
sI13954
I7080
sI13967
I7081
sI13972
I7082
sI13976
I7083
sI13977
I7084
sI13981
I7085
sI13985
I7086
sI13986
I7087
sI13989
I7088
sI13991
I7089
sI13993
I7090
sI13994
I7091
sI13995
I7092
sI13996
I7093
sI13997
I7094
sI13999
I7095
sI14000
I7096
sI14001
I7097
sI14002
I7098
sI14003
I7099
sI14004
I7100
sI14005
I7101
sI14006
I7102
sI14015
I7103
sI14016
I7104
sI14017
I7105
sI14018
I7106
sI14020
I7107
sI14021
I7108
sI14022
I7109
sI14030
I7110
sI14034
I7111
sI14040
I7112
sI14081
I7113
sI14087
I7114
sI14090
I7115
sI14095
I7116
sI14096
I7117
sI14097
I7118
sI14098
I7119
sI14099
I7120
sI14102
I7121
sI14104
I7122
sI14106
I7123
sI14124
I7124
sI14125
I7125
sI14129
I7126
sI14131
I7127
sI14133
I7128
sI14135
I7129
sI14136
I7130
sI14138
I7131
sI14139
I7132
sI14146
I7133
sI14151
I7134
sI14152
I7135
sI14153
I7136
sI14154
I7137
sI14155
I7138
sI14156
I7139
sI14157
I7140
sI14158
I7141
sI14159
I7142
sI14160
I7143
sI14161
I7144
sI14162
I7145
sI14163
I7146
sI14164
I7147
sI14165
I7148
sI14166
I7149
sI14168
I7150
sI14170
I7151
sI14171
I7152
sI14172
I7153
sI14173
I7154
sI14174
I7155
sI14175
I7156
sI14176
I7157
sI14177
I7158
sI14178
I7159
sI14179
I7160
sI14180
I7161
sI14181
I7162
sI14182
I7163
sI14183
I7164
sI14184
I7165
sI14185
I7166
sI14186
I7167
sI14187
I7168
sI14188
I7169
sI14189
I7170
sI14190
I7171
sI14191
I7172
sI14192
I7173
sI14193
I7174
sI14194
I7175
sI14195
I7176
sI14196
I7177
sI14197
I7178
sI14198
I7179
sI14199
I7180
sI14200
I7181
sI14201
I7182
sI14202
I7183
sI14203
I7184
sI14209
I7185
sI14211
I7186
sI14212
I7187
sI14213
I7188
sI14215
I7189
sI14219
I7190
sI14220
I7191
sI14248
I7192
sI14261
I7193
sI14264
I7194
sI14271
I7195
sI14272
I7196
sI14273
I7197
sI14274
I7198
sI14275
I7199
sI14276
I7200
sI14277
I7201
sI14278
I7202
sI14279
I7203
sI14280
I7204
sI14281
I7205
sI14286
I7206
sI14292
I7207
sI14293
I7208
sI14304
I7209
sI14305
I7210
sI14306
I7211
sI14308
I7212
sI14309
I7213
sI14310
I7214
sI14311
I7215
sI14313
I7216
sI14314
I7217
sI14315
I7218
sI14316
I7219
sI14317
I7220
sI14319
I7221
sI14322
I7222
sI14323
I7223
sI14325
I7224
sI14326
I7225
sI14327
I7226
sI14328
I7227
sI14329
I7228
sI14330
I7229
sI14331
I7230
sI14332
I7231
sI14334
I7232
sI14335
I7233
sI14336
I7234
sI14337
I7235
sI14338
I7236
sI14339
I7237
sI14340
I7238
sI14341
I7239
sI14342
I7240
sI14343
I7241
sI14344
I7242
sI14345
I7243
sI14346
I7244
sI14347
I7245
sI14348
I7246
sI14349
I7247
sI14350
I7248
sI14353
I7249
sI14357
I7250
sI14358
I7251
sI14366
I7252
sI14370
I7253
sI14375
I7254
sI14377
I7255
sI14382
I7256
sI14383
I7257
sI14384
I7258
sI14385
I7259
sI14386
I7260
sI14387
I7261
sI14388
I7262
sI14389
I7263
sI14390
I7264
sI14391
I7265
sI14392
I7266
sI14400
I7267
sI14404
I7268
sI14431
I7269
sI14439
I7270
sI14440
I7271
sI14441
I7272
sI14447
I7273
sI14452
I7274
sI14453
I7275
sI14454
I7276
sI14455
I7277
sI14456
I7278
sI14457
I7279
sI14458
I7280
sI14459
I7281
sI14469
I7282
sI14472
I7283
sI14473
I7284
sI14477
I7285
sI14479
I7286
sI14481
I7287
sI14482
I7288
sI14483
I7289
sI14484
I7290
sI14485
I7291
sI14486
I7292
sI14487
I7293
sI14488
I7294
sI14489
I7295
sI14490
I7296
sI14491
I7297
sI14492
I7298
sI14493
I7299
sI14494
I7300
sI14495
I7301
sI14496
I7302
sI14497
I7303
sI14498
I7304
sI14499
I7305
sI14500
I7306
sI14501
I7307
sI14502
I7308
sI14503
I7309
sI14504
I7310
sI14507
I7311
sI14508
I7312
sI14509
I7313
sI14510
I7314
sI14511
I7315
sI14512
I7316
sI14515
I7317
sI14521
I7318
sI14522
I7319
sI14523
I7320
sI14524
I7321
sI14525
I7322
sI14526
I7323
sI14528
I7324
sI14545
I7325
sI14558
I7326
sI14559
I7327
sI14563
I7328
sI14564
I7329
sI14569
I7330
sI14570
I7331
sI14571
I7332
sI14572
I7333
sI14573
I7334
sI14574
I7335
sI14575
I7336
sI14576
I7337
sI14577
I7338
sI14578
I7339
sI14579
I7340
sI14580
I7341
sI14583
I7342
sI14604
I7343
sI14606
I7344
sI14607
I7345
sI14608
I7346
sI14609
I7347
sI14610
I7348
sI14611
I7349
sI14612
I7350
sI14613
I7351
sI14614
I7352
sI14617
I7353
sI14618
I7354
sI14619
I7355
sI14620
I7356
sI14621
I7357
sI14622
I7358
sI14623
I7359
sI14624
I7360
sI14625
I7361
sI14626
I7362
sI14627
I7363
sI14628
I7364
sI14629
I7365
sI14630
I7366
sI14631
I7367
sI14632
I7368
sI14633
I7369
sI14634
I7370
sI14635
I7371
sI14636
I7372
sI14637
I7373
sI14638
I7374
sI14639
I7375
sI14640
I7376
sI14645
I7377
sI14647
I7378
sI14650
I7379
sI14654
I7380
sI14655
I7381
sI14658
I7382
sI14659
I7383
sI14660
I7384
sI14661
I7385
sI14662
I7386
sI14663
I7387
sI14665
I7388
sI14666
I7389
sI14667
I7390
sI14668
I7391
sI14669
I7392
sI14670
I7393
sI14671
I7394
sI14672
I7395
sI14673
I7396
sI14674
I7397
sI14675
I7398
sI14676
I7399
sI14677
I7400
sI14678
I7401
sI14679
I7402
sI14680
I7403
sI14681
I7404
sI14682
I7405
sI14683
I7406
sI14684
I7407
sI14685
I7408
sI14687
I7409
sI14690
I7410
sI14695
I7411
sI14700
I7412
sI14701
I7413
sI14702
I7414
sI14703
I7415
sI14704
I7416
sI14705
I7417
sI14706
I7418
sI14707
I7419
sI14708
I7420
sI14709
I7421
sI14712
I7422
sI14714
I7423
sI14718
I7424
sI14723
I7425
sI14731
I7426
sI14737
I7427
sI14738
I7428
sI14749
I7429
sI14750
I7430
sI14751
I7431
sI14752
I7432
sI14753
I7433
sI14754
I7434
sI14755
I7435
sI14757
I7436
sI14758
I7437
sI14759
I7438
sI14762
I7439
sI14767
I7440
sI14768
I7441
sI14771
I7442
sI14773
I7443
sI14776
I7444
sI14777
I7445
sI14778
I7446
sI14779
I7447
sI14780
I7448
sI14781
I7449
sI14782
I7450
sI14783
I7451
sI14784
I7452
sI14785
I7453
sI14786
I7454
sI14787
I7455
sI14789
I7456
sI14790
I7457
sI14791
I7458
sI14792
I7459
sI14793
I7460
sI14794
I7461
sI14795
I7462
sI14796
I7463
sI14797
I7464
sI14798
I7465
sI14799
I7466
sI14800
I7467
sI14807
I7468
sI14808
I7469
sI14809
I7470
sI14810
I7471
sI14811
I7472
sI14812
I7473
sI14813
I7474
sI14814
I7475
sI14815
I7476
sI14816
I7477
sI14817
I7478
sI14818
I7479
sI14819
I7480
sI14821
I7481
sI14826
I7482
sI14833
I7483
sI14835
I7484
sI14836
I7485
sI14837
I7486
sI14838
I7487
sI14839
I7488
sI14840
I7489
sI14842
I7490
sI14843
I7491
sI14844
I7492
sI14845
I7493
sI14846
I7494
sI14847
I7495
sI14850
I7496
sI14876
I7497
sI14881
I7498
sI14882
I7499
sI14883
I7500
sI14884
I7501
sI14888
I7502
sI14895
I7503
sI14898
I7504
sI14904
I7505
sI14910
I7506
sI14911
I7507
sI14912
I7508
sI14916
I7509
sI14922
I7510
sI14928
I7511
sI14929
I7512
sI14930
I7513
sI14931
I7514
sI14932
I7515
sI14933
I7516
sI14934
I7517
sI14937
I7518
sI14939
I7519
sI14944
I7520
sI14946
I7521
sI14947
I7522
sI14948
I7523
sI14949
I7524
sI14950
I7525
sI14951
I7526
sI14952
I7527
sI14953
I7528
sI14954
I7529
sI14955
I7530
sI14956
I7531
sI14957
I7532
sI14958
I7533
sI14959
I7534
sI14960
I7535
sI14961
I7536
sI14962
I7537
sI14963
I7538
sI14966
I7539
sI14967
I7540
sI14970
I7541
sI14971
I7542
sI14973
I7543
sI14974
I7544
sI14986
I7545
sI14987
I7546
sI14988
I7547
sI14989
I7548
sI14990
I7549
sI14991
I7550
sI14992
I7551
sI14993
I7552
sI14994
I7553
sI14995
I7554
sI14996
I7555
sI14998
I7556
sI15002
I7557
sI15005
I7558
sI15006
I7559
sI15008
I7560
sI15009
I7561
sI15010
I7562
sI15011
I7563
sI15012
I7564
sI15013
I7565
sI15014
I7566
sI15015
I7567
sI15016
I7568
sI15017
I7569
sI15018
I7570
sI15048
I7571
sI15049
I7572
sI15062
I7573
sI15068
I7574
sI15082
I7575
sI15083
I7576
sI15092
I7577
sI15094
I7578
sI15108
I7579
sI15109
I7580
sI15110
I7581
sI15111
I7582
sI15112
I7583
sI15113
I7584
sI15114
I7585
sI15115
I7586
sI15116
I7587
sI15118
I7588
sI15119
I7589
sI15124
I7590
sI15125
I7591
sI15126
I7592
sI15127
I7593
sI15128
I7594
sI15129
I7595
sI15131
I7596
sI15132
I7597
sI15133
I7598
sI15135
I7599
sI15136
I7600
sI15137
I7601
sI15145
I7602
sI15157
I7603
sI15164
I7604
sI15165
I7605
sI15166
I7606
sI15167
I7607
sI15168
I7608
sI15169
I7609
sI15170
I7610
sI15172
I7611
sI15175
I7612
sI15176
I7613
sI15179
I7614
sI15185
I7615
sI15186
I7616
sI15187
I7617
sI15188
I7618
sI15190
I7619
sI15191
I7620
sI15192
I7621
sI15194
I7622
sI15195
I7623
sI15196
I7624
sI15197
I7625
sI15198
I7626
sI15218
I7627
sI15230
I7628
sI15235
I7629
sI15248
I7630
sI15253
I7631
sI15263
I7632
sI15286
I7633
sI15287
I7634
sI15288
I7635
sI15289
I7636
sI15290
I7637
sI15291
I7638
sI15292
I7639
sI15293
I7640
sI15294
I7641
sI15300
I7642
sI15302
I7643
sI15308
I7644
sI15309
I7645
sI15315
I7646
sI15318
I7647
sI15319
I7648
sI15320
I7649
sI15322
I7650
sI15330
I7651
sI15332
I7652
sI15337
I7653
sI15341
I7654
sI15343
I7655
sI15345
I7656
sI15346
I7657
sI15347
I7658
sI15348
I7659
sI15349
I7660
sI15350
I7661
sI15355
I7662
sI15358
I7663
sI15359
I7664
sI15361
I7665
sI15365
I7666
sI15368
I7667
sI15369
I7668
sI15370
I7669
sI15372
I7670
sI15373
I7671
sI15374
I7672
sI15375
I7673
sI15376
I7674
sI15377
I7675
sI15378
I7676
sI15379
I7677
sI15380
I7678
sI15397
I7679
sI15402
I7680
sI15428
I7681
sI15430
I7682
sI15432
I7683
sI15435
I7684
sI15441
I7685
sI15466
I7686
sI15467
I7687
sI15468
I7688
sI15469
I7689
sI15470
I7690
sI15471
I7691
sI15475
I7692
sI15483
I7693
sI15492
I7694
sI15497
I7695
sI15505
I7696
sI15517
I7697
sI15518
I7698
sI15525
I7699
sI15526
I7700
sI15532
I7701
sI15536
I7702
sI15538
I7703
sI15540
I7704
sI15541
I7705
sI15542
I7706
sI15543
I7707
sI15544
I7708
sI15545
I7709
sI15546
I7710
sI15547
I7711
sI15548
I7712
sI15549
I7713
sI15550
I7714
sI15551
I7715
sI15552
I7716
sI15556
I7717
sI15574
I7718
sI15587
I7719
sI15597
I7720
sI15647
I7721
sI15648
I7722
sI15649
I7723
sI15650
I7724
sI15651
I7725
sI15652
I7726
sI15653
I7727
sI15654
I7728
sI15655
I7729
sI15656
I7730
sI15657
I7731
sI15660
I7732
sI15661
I7733
sI15662
I7734
sI15663
I7735
sI15664
I7736
sI15665
I7737
sI15666
I7738
sI15667
I7739
sI15668
I7740
sI15669
I7741
sI15670
I7742
sI15671
I7743
sI15672
I7744
sI15673
I7745
sI15674
I7746
sI15675
I7747
sI15676
I7748
sI15677
I7749
sI15678
I7750
sI15679
I7751
sI15680
I7752
sI15681
I7753
sI15682
I7754
sI15683
I7755
sI15684
I7756
sI15685
I7757
sI15686
I7758
sI15687
I7759
sI15688
I7760
sI15689
I7761
sI15690
I7762
sI15691
I7763
sI15692
I7764
sI15693
I7765
sI15694
I7766
sI15700
I7767
sI15701
I7768
sI15702
I7769
sI15703
I7770
sI15704
I7771
sI15705
I7772
sI15706
I7773
sI15707
I7774
sI15715
I7775
sI15716
I7776
sI15717
I7777
sI15718
I7778
sI15719
I7779
sI15721
I7780
sI15722
I7781
sI15723
I7782
sI15725
I7783
sI15731
I7784
sI15805
I7785
sI15807
I7786
sI15808
I7787
sI15829
I7788
sI15830
I7789
sI15831
I7790
sI15832
I7791
sI15833
I7792
sI15834
I7793
sI15835
I7794
sI15836
I7795
sI15837
I7796
sI15838
I7797
sI15839
I7798
sI15846
I7799
sI15847
I7800
sI15848
I7801
sI15849
I7802
sI15850
I7803
sI15851
I7804
sI15852
I7805
sI15853
I7806
sI15854
I7807
sI15855
I7808
sI15856
I7809
sI15857
I7810
sI15859
I7811
sI15861
I7812
sI15863
I7813
sI15864
I7814
sI15865
I7815
sI15866
I7816
sI15867
I7817
sI15877
I7818
sI16021
I7819
sI16076
I7820
sI16110
I7821
sI16179
I7822
s.