(dp1
I0
I90
sI1
I112
sI2
I290
sI3
I301
sI4
I310
sI5
I315
sI6
I340
sI7
I355
sI8
I360
sI9
I387
sI10
I393
sI11
I395
sI12
I450
sI13
I456
sI14
I459
sI15
I460
sI16
I485
sI17
I487
sI18
I492
sI19
I496
sI20
I497
sI21
I508
sI22
I525
sI23
I526
sI24
I528
sI25
I532
sI26
I541
sI27
I550
sI28
I553
sI29
I556
sI30
I557
sI31
I560
sI32
I562
sI33
I563
sI34
I570
sI35
I585
sI36
I586
sI37
I587
sI38
I588
sI39
I589
sI40
I590
sI41
I591
sI42
I592
sI43
I593
sI44
I594
sI45
I595
sI46
I596
sI47
I597
sI48
I598
sI49
I599
sI50
I600
sI51
I601
sI52
I602
sI53
I603
sI54
I604
sI55
I605
sI56
I606
sI57
I607
sI58
I608
sI59
I609
sI60
I610
sI61
I611
sI62
I612
sI63
I613
sI64
I614
sI65
I615
sI66
I616
sI67
I617
sI68
I618
sI69
I619
sI70
I620
sI71
I621
sI72
I625
sI73
I647
sI74
I665
sI75
I666
sI76
I669
sI77
I676
sI78
I682
sI79
I684
sI80
I686
sI81
I689
sI82
I715
sI83
I725
sI84
I728
sI85
I732
sI86
I754
sI87
I759
sI88
I760
sI89
I761
sI90
I762
sI91
I763
sI92
I764
sI93
I765
sI94
I766
sI95
I767
sI96
I768
sI97
I769
sI98
I770
sI99
I771
sI100
I772
sI101
I773
sI102
I774
sI103
I775
sI104
I776
sI105
I777
sI106
I778
sI107
I779
sI108
I780
sI109
I781
sI110
I782
sI111
I783
sI112
I784
sI113
I785
sI114
I786
sI115
I787
sI116
I788
sI117
I791
sI118
I792
sI119
I793
sI120
I794
sI121
I795
sI122
I796
sI123
I797
sI124
I798
sI125
I799
sI126
I800
sI127
I801
sI128
I802
sI129
I803
sI130
I805
sI131
I809
sI132
I812
sI133
I815
sI134
I816
sI135
I817
sI136
I818
sI137
I819
sI138
I820
sI139
I821
sI140
I822
sI141
I823
sI142
I825
sI143
I826
sI144
I828
sI145
I829
sI146
I830
sI147
I832
sI148
I833
sI149
I834
sI150
I835
sI151
I836
sI152
I837
sI153
I838
sI154
I839
sI155
I840
sI156
I841
sI157
I842
sI158
I849
sI159
I855
sI160
I856
sI161
I857
sI162
I858
sI163
I859
sI164
I868
sI165
I890
sI166
I894
sI167
I901
sI168
I905
sI169
I911
sI170
I917
sI171
I920
sI172
I933
sI173
I934
sI174
I935
sI175
I936
sI176
I937
sI177
I938
sI178
I939
sI179
I940
sI180
I941
sI181
I942
sI182
I943
sI183
I944
sI184
I945
sI185
I946
sI186
I947
sI187
I948
sI188
I949
sI189
I950
sI190
I951
sI191
I952
sI192
I953
sI193
I954
sI194
I955
sI195
I956
sI196
I957
sI197
I958
sI198
I959
sI199
I961
sI200
I965
sI201
I978
sI202
I979
sI203
I980
sI204
I981
sI205
I982
sI206
I985
sI207
I988
sI208
I989
sI209
I990
sI210
I992
sI211
I994
sI212
I995
sI213
I996
sI214
I997
sI215
I998
sI216
I999
sI217
I1000
sI218
I1001
sI219
I1002
sI220
I1003
sI221
I1004
sI222
I1005
sI223
I1014
sI224
I1015
sI225
I1019
sI226
I1025
sI227
I1028
sI228
I1029
sI229
I1031
sI230
I1032
sI231
I1035
sI232
I1036
sI233
I1037
sI234
I1038
sI235
I1039
sI236
I1040
sI237
I1041
sI238
I1042
sI239
I1043
sI240
I1084
sI241
I1087
sI242
I1092
sI243
I1108
sI244
I1109
sI245
I1110
sI246
I1111
sI247
I1112
sI248
I1113
sI249
I1114
sI250
I1115
sI251
I1116
sI252
I1117
sI253
I1118
sI254
I1119
sI255
I1120
sI256
I1121
sI257
I1122
sI258
I1123
sI259
I1124
sI260
I1125
sI261
I1126
sI262
I1127
sI263
I1128
sI264
I1129
sI265
I1130
sI266
I1131
sI267
I1132
sI268
I1133
sI269
I1134
sI270
I1135
sI271
I1136
sI272
I1137
sI273
I1138
sI274
I1139
sI275
I1156
sI276
I1157
sI277
I1158
sI278
I1159
sI279
I1160
sI280
I1161
sI281
I1167
sI282
I1170
sI283
I1172
sI284
I1173
sI285
I1174
sI286
I1175
sI287
I1176
sI288
I1177
sI289
I1178
sI290
I1179
sI291
I1180
sI292
I1181
sI293
I1182
sI294
I1183
sI295
I1186
sI296
I1188
sI297
I1199
sI298
I1200
sI299
I1201
sI300
I1202
sI301
I1203
sI302
I1204
sI303
I1211
sI304
I1214
sI305
I1215
sI306
I1216
sI307
I1217
sI308
I1218
sI309
I1219
sI310
I1220
sI311
I1221
sI312
I1222
sI313
I1223
sI314
I1224
sI315
I1225
sI316
I1226
sI317
I1231
sI318
I1239
sI319
I1240
sI320
I1241
sI321
I1244
sI322
I1246
sI323
I1248
sI324
I1249
sI325
I1269
sI326
I1271
sI327
I1284
sI328
I1286
sI329
I1287
sI330
I1288
sI331
I1289
sI332
I1290
sI333
I1291
sI334
I1292
sI335
I1293
sI336
I1294
sI337
I1295
sI338
I1296
sI339
I1297
sI340
I1298
sI341
I1299
sI342
I1300
sI343
I1301
sI344
I1302
sI345
I1303
sI346
I1304
sI347
I1305
sI348
I1306
sI349
I1307
sI350
I1308
sI351
I1309
sI352
I1310
sI353
I1313
sI354
I1316
sI355
I1317
sI356
I1319
sI357
I1320
sI358
I1321
sI359
I1322
sI360
I1328
sI361
I1335
sI362
I1336
sI363
I1337
sI364
I1338
sI365
I1339
sI366
I1340
sI367
I1341
sI368
I1342
sI369
I1345
sI370
I1348
sI371
I1350
sI372
I1351
sI373
I1353
sI374
I1355
sI375
I1357
sI376
I1358
sI377
I1359
sI378
I1360
sI379
I1361
sI380
I1362
sI381
I1363
sI382
I1364
sI383
I1368
sI384
I1369
sI385
I1377
sI386
I1378
sI387
I1379
sI388
I1380
sI389
I1381
sI390
I1382
sI391
I1388
sI392
I1389
sI393
I1390
sI394
I1391
sI395
I1392
sI396
I1393
sI397
I1394
sI398
I1395
sI399
I1396
sI400
I1397
sI401
I1398
sI402
I1399
sI403
I1400
sI404
I1401
sI405
I1402
sI406
I1403
sI407
I1404
sI408
I1405
sI409
I1406
sI410
I1408
sI411
I1410
sI412
I1411
sI413
I1413
sI414
I1416
sI415
I1417
sI416
I1418
sI417
I1419
sI418
I1420
sI419
I1421
sI420
I1422
sI421
I1423
sI422
I1424
sI423
I1425
sI424
I1426
sI425
I1439
sI426
I1450
sI427
I1453
sI428
I1460
sI429
I1461
sI430
I1463
sI431
I1467
sI432
I1468
sI433
I1469
sI434
I1470
sI435
I1471
sI436
I1472
sI437
I1473
sI438
I1474
sI439
I1475
sI440
I1476
sI441
I1477
sI442
I1478
sI443
I1479
sI444
I1480
sI445
I1481
sI446
I1482
sI447
I1483
sI448
I1484
sI449
I1485
sI450
I1486
sI451
I1487
sI452
I1488
sI453
I1489
sI454
I1490
sI455
I1491
sI456
I1492
sI457
I1495
sI458
I1496
sI459
I1501
sI460
I1502
sI461
I1503
sI462
I1504
sI463
I1510
sI464
I1514
sI465
I1515
sI466
I1516
sI467
I1517
sI468
I1518
sI469
I1519
sI470
I1520
sI471
I1525
sI472
I1527
sI473
I1529
sI474
I1531
sI475
I1532
sI476
I1538
sI477
I1539
sI478
I1542
sI479
I1543
sI480
I1547
sI481
I1548
sI482
I1551
sI483
I1555
sI484
I1556
sI485
I1557
sI486
I1558
sI487
I1559
sI488
I1560
sI489
I1564
sI490
I1565
sI491
I1566
sI492
I1567
sI493
I1568
sI494
I1569
sI495
I1570
sI496
I1571
sI497
I1572
sI498
I1573
sI499
I1574
sI500
I1575
sI501
I1576
sI502
I1577
sI503
I1578
sI504
I1579
sI505
I1580
sI506
I1581
sI507
I1582
sI508
I1583
sI509
I1584
sI510
I1585
sI511
I1586
sI512
I1587
sI513
I1588
sI514
I1589
sI515
I1590
sI516
I1591
sI517
I1592
sI518
I1593
sI519
I1594
sI520
I1596
sI521
I1598
sI522
I1599
sI523
I1600
sI524
I1601
sI525
I1602
sI526
I1603
sI527
I1604
sI528
I1608
sI529
I1613
sI530
I1620
sI531
I1621
sI532
I1622
sI533
I1624
sI534
I1628
sI535
I1629
sI536
I1630
sI537
I1631
sI538
I1632
sI539
I1633
sI540
I1634
sI541
I1635
sI542
I1636
sI543
I1637
sI544
I1638
sI545
I1644
sI546
I1645
sI547
I1646
sI548
I1647
sI549
I1648
sI550
I1649
sI551
I1650
sI552
I1651
sI553
I1652
sI554
I1653
sI555
I1654
sI556
I1655
sI557
I1656
sI558
I1657
sI559
I1658
sI560
I1659
sI561
I1660
sI562
I1661
sI563
I1662
sI564
I1663
sI565
I1664
sI566
I1665
sI567
I1666
sI568
I1667
sI569
I1668
sI570
I1669
sI571
I1670
sI572
I1671
sI573
I1672
sI574
I1673
sI575
I1674
sI576
I1675
sI577
I1676
sI578
I1682
sI579
I1683
sI580
I1684
sI581
I1685
sI582
I1690
sI583
I1695
sI584
I1696
sI585
I1697
sI586
I1698
sI587
I1699
sI588
I1703
sI589
I1705
sI590
I1706
sI591
I1717
sI592
I1719
sI593
I1720
sI594
I1721
sI595
I1722
sI596
I1723
sI597
I1724
sI598
I1725
sI599
I1726
sI600
I1728
sI601
I1731
sI602
I1733
sI603
I1735
sI604
I1736
sI605
I1737
sI606
I1738
sI607
I1739
sI608
I1740
sI609
I1743
sI610
I1744
sI611
I1745
sI612
I1746
sI613
I1747
sI614
I1748
sI615
I1749
sI616
I1750
sI617
I1751
sI618
I1752
sI619
I1753
sI620
I1754
sI621
I1755
sI622
I1756
sI623
I1757
sI624
I1758
sI625
I1759
sI626
I1760
sI627
I1761
sI628
I1762
sI629
I1763
sI630
I1764
sI631
I1765
sI632
I1766
sI633
I1767
sI634
I1768
sI635
I1769
sI636
I1770
sI637
I1771
sI638
I1772
sI639
I1773
sI640
I1774
sI641
I1775
sI642
I1776
sI643
I1777
sI644
I1778
sI645
I1779
sI646
I1780
sI647
I1781
sI648
I1782
sI649
I1783
sI650
I1784
sI651
I1785
sI652
I1786
sI653
I1787
sI654
I1788
sI655
I1789
sI656
I1790
sI657
I1791
sI658
I1794
sI659
I1795
sI660
I1799
sI661
I1800
sI662
I1801
sI663
I1803
sI664
I1804
sI665
I1806
sI666
I1807
sI667
I1808
sI668
I1809
sI669
I1810
sI670
I1811
sI671
I1812
sI672
I1813
sI673
I1814
sI674
I1815
sI675
I1816
sI676
I1817
sI677
I1818
sI678
I1819
sI679
I1820
sI680
I1821
sI681
I1822
sI682
I1823
sI683
I1824
sI684
I1825
sI685
I1826
sI686
I1827
sI687
I1828
sI688
I1829
sI689
I1830
sI690
I1831
sI691
I1832
sI692
I1833
sI693
I1834
sI694
I1835
sI695
I1836
sI696
I1837
sI697
I1838
sI698
I1839
sI699
I1840
sI700
I1841
sI701
I1842
sI702
I1843
sI703
I1844
sI704
I1845
sI705
I1846
sI706
I1847
sI707
I1848
sI708
I1849
sI709
I1850
sI710
I1851
sI711
I1852
sI712
I1853
sI713
I1854
sI714
I1855
sI715
I1856
sI716
I1857
sI717
I1862
sI718
I1863
sI719
I1864
sI720
I1865
sI721
I1866
sI722
I1872
sI723
I1873
sI724
I1874
sI725
I1875
sI726
I1876
sI727
I1877
sI728
I1878
sI729
I1879
sI730
I1880
sI731
I1881
sI732
I1884
sI733
I1886
sI734
I1887
sI735
I1892
sI736
I1896
sI737
I1897
sI738
I1898
sI739
I1899
sI740
I1900
sI741
I1901
sI742
I1902
sI743
I1903
sI744
I1904
sI745
I1905
sI746
I1906
sI747
I1907
sI748
I1908
sI749
I1909
sI750
I1911
sI751
I1912
sI752
I1913
sI753
I1914
sI754
I1915
sI755
I1916
sI756
I1917
sI757
I1918
sI758
I1919
sI759
I1920
sI760
I1921
sI761
I1922
sI762
I1923
sI763
I1924
sI764
I1925
sI765
I1926
sI766
I1927
sI767
I1928
sI768
I1929
sI769
I1930
sI770
I1931
sI771
I1932
sI772
I1933
sI773
I1934
sI774
I1935
sI775
I1936
sI776
I1937
sI777
I1938
sI778
I1939
sI779
I1940
sI780
I1941
sI781
I1942
sI782
I1943
sI783
I1944
sI784
I1945
sI785
I1946
sI786
I1947
sI787
I1948
sI788
I1949
sI789
I1950
sI790
I1951
sI791
I1952
sI792
I1953
sI793
I1954
sI794
I1955
sI795
I1956
sI796
I1957
sI797
I1958
sI798
I1959
sI799
I1960
sI800
I1961
sI801
I1962
sI802
I1963
sI803
I1964
sI804
I1965
sI805
I1966
sI806
I1967
sI807
I1968
sI808
I1969
sI809
I1970
sI810
I1971
sI811
I1972
sI812
I1973
sI813
I1974
sI814
I1975
sI815
I1976
sI816
I1977
sI817
I1978
sI818
I1979
sI819
I1980
sI820
I1981
sI821
I1982
sI822
I1983
sI823
I1984
sI824
I1985
sI825
I1986
sI826
I1987
sI827
I1988
sI828
I1989
sI829
I1990
sI830
I1991
sI831
I1992
sI832
I1993
sI833
I1994
sI834
I1995
sI835
I1996
sI836
I1997
sI837
I1998
sI838
I1999
sI839
I2000
sI840
I2001
sI841
I2002
sI842
I2003
sI843
I2004
sI844
I2005
sI845
I2006
sI846
I2007
sI847
I2008
sI848
I2009
sI849
I2010
sI850
I2011
sI851
I2012
sI852
I2013
sI853
I2014
sI854
I2015
sI855
I2016
sI856
I2017
sI857
I2018
sI858
I2019
sI859
I2020
sI860
I2021
sI861
I2022
sI862
I2023
sI863
I2024
sI864
I2025
sI865
I2026
sI866
I2027
sI867
I2028
sI868
I2029
sI869
I2031
sI870
I2032
sI871
I2033
sI872
I2034
sI873
I2035
sI874
I2036
sI875
I2037
sI876
I2038
sI877
I2039
sI878
I2042
sI879
I2043
sI880
I2044
sI881
I2045
sI882
I2046
sI883
I2050
sI884
I2051
sI885
I2052
sI886
I2053
sI887
I2054
sI888
I2056
sI889
I2057
sI890
I2058
sI891
I2059
sI892
I2060
sI893
I2061
sI894
I2062
sI895
I2063
sI896
I2068
sI897
I2069
sI898
I2072
sI899
I2074
sI900
I2075
sI901
I2076
sI902
I2077
sI903
I2078
sI904
I2079
sI905
I2080
sI906
I2081
sI907
I2082
sI908
I2083
sI909
I2084
sI910
I2085
sI911
I2086
sI912
I2087
sI913
I2088
sI914
I2089
sI915
I2090
sI916
I2091
sI917
I2092
sI918
I2093
sI919
I2094
sI920
I2095
sI921
I2096
sI922
I2097
sI923
I2098
sI924
I2099
sI925
I2100
sI926
I2101
sI927
I2102
sI928
I2103
sI929
I2104
sI930
I2105
sI931
I2106
sI932
I2107
sI933
I2108
sI934
I2109
sI935
I2110
sI936
I2111
sI937
I2112
sI938
I2113
sI939
I2114
sI940
I2115
sI941
I2116
sI942
I2117
sI943
I2118
sI944
I2119
sI945
I2120
sI946
I2121
sI947
I2122
sI948
I2123
sI949
I2124
sI950
I2125
sI951
I2126
sI952
I2127
sI953
I2128
sI954
I2129
sI955
I2130
sI956
I2131
sI957
I2132
sI958
I2133
sI959
I2134
sI960
I2135
sI961
I2136
sI962
I2137
sI963
I2138
sI964
I2139
sI965
I2140
sI966
I2141
sI967
I2142
sI968
I2143
sI969
I2144
sI970
I2145
sI971
I2146
sI972
I2147
sI973
I2148
sI974
I2149
sI975
I2150
sI976
I2151
sI977
I2152
sI978
I2153
sI979
I2154
sI980
I2155
sI981
I2156
sI982
I2157
sI983
I2158
sI984
I2159
sI985
I2160
sI986
I2161
sI987
I2162
sI988
I2163
sI989
I2164
sI990
I2165
sI991
I2166
sI992
I2167
sI993
I2168
sI994
I2169
sI995
I2170
sI996
I2171
sI997
I2172
sI998
I2173
sI999
I2174
sI1000
I2175
sI1001
I2176
sI1002
I2177
sI1003
I2178
sI1004
I2179
sI1005
I2180
sI1006
I2181
sI1007
I2182
sI1008
I2183
sI1009
I2184
sI1010
I2185
sI1011
I2186
sI1012
I2187
sI1013
I2188
sI1014
I2189
sI1015
I2190
sI1016
I2191
sI1017
I2192
sI1018
I2193
sI1019
I2194
sI1020
I2195
sI1021
I2196
sI1022
I2197
sI1023
I2198
sI1024
I2199
sI1025
I2200
sI1026
I2201
sI1027
I2202
sI1028
I2203
sI1029
I2204
sI1030
I2205
sI1031
I2206
sI1032
I2207
sI1033
I2208
sI1034
I2209
sI1035
I2210
sI1036
I2211
sI1037
I2212
sI1038
I2213
sI1039
I2214
sI1040
I2215
sI1041
I2216
sI1042
I2217
sI1043
I2218
sI1044
I2221
sI1045
I2223
sI1046
I2224
sI1047
I2225
sI1048
I2228
sI1049
I2229
sI1050
I2230
sI1051
I2231
sI1052
I2232
sI1053
I2236
sI1054
I2237
sI1055
I2238
sI1056
I2239
sI1057
I2240
sI1058
I2241
sI1059
I2242
sI1060
I2243
sI1061
I2246
sI1062
I2247
sI1063
I2251
sI1064
I2253
sI1065
I2254
sI1066
I2255
sI1067
I2256
sI1068
I2257
sI1069
I2258
sI1070
I2259
sI1071
I2260
sI1072
I2261
sI1073
I2262
sI1074
I2263
sI1075
I2264
sI1076
I2265
sI1077
I2266
sI1078
I2267
sI1079
I2268
sI1080
I2269
sI1081
I2270
sI1082
I2271
sI1083
I2272
sI1084
I2273
sI1085
I2274
sI1086
I2275
sI1087
I2276
sI1088
I2277
sI1089
I2278
sI1090
I2279
sI1091
I2280
sI1092
I2281
sI1093
I2282
sI1094
I2283
sI1095
I2284
sI1096
I2285
sI1097
I2286
sI1098
I2287
sI1099
I2288
sI1100
I2289
sI1101
I2290
sI1102
I2291
sI1103
I2292
sI1104
I2293
sI1105
I2294
sI1106
I2295
sI1107
I2296
sI1108
I2297
sI1109
I2298
sI1110
I2299
sI1111
I2300
sI1112
I2301
sI1113
I2302
sI1114
I2303
sI1115
I2304
sI1116
I2305
sI1117
I2306
sI1118
I2307
sI1119
I2308
sI1120
I2309
sI1121
I2310
sI1122
I2311
sI1123
I2312
sI1124
I2313
sI1125
I2314
sI1126
I2315
sI1127
I2316
sI1128
I2317
sI1129
I2318
sI1130
I2319
sI1131
I2320
sI1132
I2321
sI1133
I2322
sI1134
I2323
sI1135
I2324
sI1136
I2325
sI1137
I2326
sI1138
I2327
sI1139
I2328
sI1140
I2329
sI1141
I2330
sI1142
I2331
sI1143
I2332
sI1144
I2333
sI1145
I2334
sI1146
I2335
sI1147
I2336
sI1148
I2337
sI1149
I2338
sI1150
I2339
sI1151
I2341
sI1152
I2343
sI1153
I2344
sI1154
I2345
sI1155
I2346
sI1156
I2347
sI1157
I2348
sI1158
I2349
sI1159
I2350
sI1160
I2351
sI1161
I2352
sI1162
I2353
sI1163
I2354
sI1164
I2355
sI1165
I2356
sI1166
I2357
sI1167
I2358
sI1168
I2359
sI1169
I2360
sI1170
I2361
sI1171
I2362
sI1172
I2363
sI1173
I2364
sI1174
I2365
sI1175
I2366
sI1176
I2367
sI1177
I2368
sI1178
I2369
sI1179
I2370
sI1180
I2371
sI1181
I2372
sI1182
I2373
sI1183
I2374
sI1184
I2375
sI1185
I2376
sI1186
I2377
sI1187
I2378
sI1188
I2379
sI1189
I2380
sI1190
I2381
sI1191
I2382
sI1192
I2383
sI1193
I2384
sI1194
I2385
sI1195
I2386
sI1196
I2387
sI1197
I2388
sI1198
I2389
sI1199
I2390
sI1200
I2391
sI1201
I2392
sI1202
I2393
sI1203
I2394
sI1204
I2395
sI1205
I2396
sI1206
I2397
sI1207
I2398
sI1208
I2401
sI1209
I2403
sI1210
I2404
sI1211
I2405
sI1212
I2406
sI1213
I2408
sI1214
I2409
sI1215
I2410
sI1216
I2411
sI1217
I2412
sI1218
I2413
sI1219
I2417
sI1220
I2418
sI1221
I2419
sI1222
I2420
sI1223
I2421
sI1224
I2422
sI1225
I2425
sI1226
I2426
sI1227
I2427
sI1228
I2432
sI1229
I2433
sI1230
I2434
sI1231
I2435
sI1232
I2436
sI1233
I2437
sI1234
I2438
sI1235
I2439
sI1236
I2440
sI1237
I2441
sI1238
I2442
sI1239
I2443
sI1240
I2444
sI1241
I2445
sI1242
I2446
sI1243
I2447
sI1244
I2448
sI1245
I2449
sI1246
I2450
sI1247
I2451
sI1248
I2452
sI1249
I2453
sI1250
I2454
sI1251
I2455
sI1252
I2456
sI1253
I2457
sI1254
I2458
sI1255
I2459
sI1256
I2460
sI1257
I2461
sI1258
I2462
sI1259
I2463
sI1260
I2464
sI1261
I2465
sI1262
I2466
sI1263
I2467
sI1264
I2468
sI1265
I2469
sI1266
I2470
sI1267
I2471
sI1268
I2472
sI1269
I2473
sI1270
I2474
sI1271
I2475
sI1272
I2476
sI1273
I2477
sI1274
I2478
sI1275
I2479
sI1276
I2480
sI1277
I2481
sI1278
I2482
sI1279
I2483
sI1280
I2484
sI1281
I2485
sI1282
I2486
sI1283
I2487
sI1284
I2488
sI1285
I2489
sI1286
I2490
sI1287
I2491
sI1288
I2492
sI1289
I2493
sI1290
I2494
sI1291
I2495
sI1292
I2496
sI1293
I2497
sI1294
I2498
sI1295
I2499
sI1296
I2500
sI1297
I2501
sI1298
I2502
sI1299
I2503
sI1300
I2504
sI1301
I2505
sI1302
I2506
sI1303
I2507
sI1304
I2508
sI1305
I2509
sI1306
I2510
sI1307
I2511
sI1308
I2512
sI1309
I2513
sI1310
I2514
sI1311
I2515
sI1312
I2516
sI1313
I2517
sI1314
I2518
sI1315
I2519
sI1316
I2523
sI1317
I2526
sI1318
I2527
sI1319
I2528
sI1320
I2529
sI1321
I2530
sI1322
I2531
sI1323
I2532
sI1324
I2533
sI1325
I2534
sI1326
I2535
sI1327
I2536
sI1328
I2537
sI1329
I2538
sI1330
I2539
sI1331
I2540
sI1332
I2541
sI1333
I2542
sI1334
I2543
sI1335
I2544
sI1336
I2545
sI1337
I2546
sI1338
I2547
sI1339
I2548
sI1340
I2549
sI1341
I2550
sI1342
I2551
sI1343
I2552
sI1344
I2553
sI1345
I2554
sI1346
I2555
sI1347
I2556
sI1348
I2557
sI1349
I2558
sI1350
I2559
sI1351
I2560
sI1352
I2561
sI1353
I2562
sI1354
I2563
sI1355
I2567
sI1356
I2570
sI1357
I2571
sI1358
I2572
sI1359
I2573
sI1360
I2574
sI1361
I2575
sI1362
I2576
sI1363
I2577
sI1364
I2585
sI1365
I2586
sI1366
I2587
sI1367
I2588
sI1368
I2590
sI1369
I2592
sI1370
I2596
sI1371
I2600
sI1372
I2603
sI1373
I2604
sI1374
I2605
sI1375
I2606
sI1376
I2607
sI1377
I2608
sI1378
I2609
sI1379
I2610
sI1380
I2611
sI1381
I2612
sI1382
I2613
sI1383
I2614
sI1384
I2615
sI1385
I2616
sI1386
I2617
sI1387
I2618
sI1388
I2619
sI1389
I2620
sI1390
I2621
sI1391
I2622
sI1392
I2623
sI1393
I2624
sI1394
I2625
sI1395
I2626
sI1396
I2627
sI1397
I2628
sI1398
I2629
sI1399
I2630
sI1400
I2631
sI1401
I2632
sI1402
I2633
sI1403
I2634
sI1404
I2635
sI1405
I2636
sI1406
I2637
sI1407
I2638
sI1408
I2639
sI1409
I2640
sI1410
I2641
sI1411
I2642
sI1412
I2643
sI1413
I2644
sI1414
I2645
sI1415
I2646
sI1416
I2647
sI1417
I2648
sI1418
I2649
sI1419
I2650
sI1420
I2651
sI1421
I2652
sI1422
I2653
sI1423
I2654
sI1424
I2655
sI1425
I2656
sI1426
I2657
sI1427
I2658
sI1428
I2659
sI1429
I2660
sI1430
I2661
sI1431
I2662
sI1432
I2663
sI1433
I2664
sI1434
I2665
sI1435
I2666
sI1436
I2667
sI1437
I2668
sI1438
I2669
sI1439
I2670
sI1440
I2671
sI1441
I2672
sI1442
I2673
sI1443
I2674
sI1444
I2675
sI1445
I2676
sI1446
I2677
sI1447
I2678
sI1448
I2679
sI1449
I2680
sI1450
I2681
sI1451
I2682
sI1452
I2683
sI1453
I2684
sI1454
I2685
sI1455
I2686
sI1456
I2687
sI1457
I2688
sI1458
I2689
sI1459
I2690
sI1460
I2691
sI1461
I2692
sI1462
I2693
sI1463
I2694
sI1464
I2695
sI1465
I2696
sI1466
I2697
sI1467
I2699
sI1468
I2701
sI1469
I2702
sI1470
I2706
sI1471
I2707
sI1472
I2708
sI1473
I2709
sI1474
I2710
sI1475
I2711
sI1476
I2712
sI1477
I2713
sI1478
I2714
sI1479
I2715
sI1480
I2716
sI1481
I2717
sI1482
I2718
sI1483
I2719
sI1484
I2720
sI1485
I2721
sI1486
I2722
sI1487
I2723
sI1488
I2724
sI1489
I2725
sI1490
I2726
sI1491
I2727
sI1492
I2728
sI1493
I2729
sI1494
I2730
sI1495
I2731
sI1496
I2732
sI1497
I2733
sI1498
I2734
sI1499
I2735
sI1500
I2736
sI1501
I2737
sI1502
I2738
sI1503
I2739
sI1504
I2740
sI1505
I2741
sI1506
I2742
sI1507
I2743
sI1508
I2749
sI1509
I2750
sI1510
I2751
sI1511
I2752
sI1512
I2753
sI1513
I2754
sI1514
I2755
sI1515
I2756
sI1516
I2757
sI1517
I2758
sI1518
I2759
sI1519
I2767
sI1520
I2768
sI1521
I2769
sI1522
I2781
sI1523
I2783
sI1524
I2784
sI1525
I2785
sI1526
I2786
sI1527
I2787
sI1528
I2788
sI1529
I2789
sI1530
I2790
sI1531
I2791
sI1532
I2792
sI1533
I2793
sI1534
I2794
sI1535
I2795
sI1536
I2796
sI1537
I2797
sI1538
I2798
sI1539
I2799
sI1540
I2800
sI1541
I2801
sI1542
I2802
sI1543
I2803
sI1544
I2804
sI1545
I2805
sI1546
I2806
sI1547
I2807
sI1548
I2808
sI1549
I2809
sI1550
I2810
sI1551
I2811
sI1552
I2812
sI1553
I2813
sI1554
I2814
sI1555
I2815
sI1556
I2816
sI1557
I2817
sI1558
I2818
sI1559
I2819
sI1560
I2820
sI1561
I2821
sI1562
I2822
sI1563
I2823
sI1564
I2824
sI1565
I2825
sI1566
I2826
sI1567
I2827
sI1568
I2828
sI1569
I2829
sI1570
I2830
sI1571
I2831
sI1572
I2832
sI1573
I2833
sI1574
I2834
sI1575
I2835
sI1576
I2836
sI1577
I2837
sI1578
I2838
sI1579
I2839
sI1580
I2840
sI1581
I2841
sI1582
I2842
sI1583
I2843
sI1584
I2844
sI1585
I2845
sI1586
I2846
sI1587
I2847
sI1588
I2848
sI1589
I2849
sI1590
I2850
sI1591
I2851
sI1592
I2852
sI1593
I2853
sI1594
I2854
sI1595
I2855
sI1596
I2856
sI1597
I2857
sI1598
I2858
sI1599
I2859
sI1600
I2860
sI1601
I2861
sI1602
I2862
sI1603
I2863
sI1604
I2864
sI1605
I2865
sI1606
I2866
sI1607
I2867
sI1608
I2868
sI1609
I2869
sI1610
I2870
sI1611
I2871
sI1612
I2872
sI1613
I2873
sI1614
I2875
sI1615
I2879
sI1616
I2882
sI1617
I2883
sI1618
I2884
sI1619
I2885
sI1620
I2889
sI1621
I2890
sI1622
I2891
sI1623
I2892
sI1624
I2893
sI1625
I2895
sI1626
I2896
sI1627
I2897
sI1628
I2898
sI1629
I2901
sI1630
I2902
sI1631
I2903
sI1632
I2904
sI1633
I2905
sI1634
I2906
sI1635
I2907
sI1636
I2908
sI1637
I2909
sI1638
I2910
sI1639
I2911
sI1640
I2912
sI1641
I2913
sI1642
I2914
sI1643
I2915
sI1644
I2916
sI1645
I2917
sI1646
I2918
sI1647
I2919
sI1648
I2920
sI1649
I2921
sI1650
I2922
sI1651
I2923
sI1652
I2924
sI1653
I2925
sI1654
I2926
sI1655
I2930
sI1656
I2931
sI1657
I2932
sI1658
I2933
sI1659
I2934
sI1660
I2935
sI1661
I2936
sI1662
I2937
sI1663
I2938
sI1664
I2939
sI1665
I2940
sI1666
I2942
sI1667
I2947
sI1668
I2950
sI1669
I2953
sI1670
I2955
sI1671
I2956
sI1672
I2957
sI1673
I2958
sI1674
I2959
sI1675
I2961
sI1676
I2962
sI1677
I2963
sI1678
I2964
sI1679
I2965
sI1680
I2966
sI1681
I2967
sI1682
I2968
sI1683
I2969
sI1684
I2970
sI1685
I2971
sI1686
I2972
sI1687
I2973
sI1688
I2974
sI1689
I2975
sI1690
I2976
sI1691
I2977
sI1692
I2978
sI1693
I2979
sI1694
I2980
sI1695
I2981
sI1696
I2982
sI1697
I2983
sI1698
I2984
sI1699
I2985
sI1700
I2986
sI1701
I2987
sI1702
I2988
sI1703
I2989
sI1704
I2990
sI1705
I2991
sI1706
I2992
sI1707
I2993
sI1708
I2994
sI1709
I2995
sI1710
I2996
sI1711
I2997
sI1712
I2998
sI1713
I2999
sI1714
I3000
sI1715
I3001
sI1716
I3002
sI1717
I3003
sI1718
I3004
sI1719
I3005
sI1720
I3006
sI1721
I3007
sI1722
I3008
sI1723
I3009
sI1724
I3010
sI1725
I3011
sI1726
I3012
sI1727
I3013
sI1728
I3014
sI1729
I3015
sI1730
I3016
sI1731
I3017
sI1732
I3018
sI1733
I3019
sI1734
I3020
sI1735
I3021
sI1736
I3022
sI1737
I3023
sI1738
I3024
sI1739
I3025
sI1740
I3026
sI1741
I3027
sI1742
I3028
sI1743
I3029
sI1744
I3030
sI1745
I3031
sI1746
I3032
sI1747
I3033
sI1748
I3034
sI1749
I3035
sI1750
I3036
sI1751
I3037
sI1752
I3038
sI1753
I3039
sI1754
I3040
sI1755
I3041
sI1756
I3047
sI1757
I3048
sI1758
I3049
sI1759
I3050
sI1760
I3051
sI1761
I3054
sI1762
I3055
sI1763
I3058
sI1764
I3063
sI1765
I3064
sI1766
I3065
sI1767
I3066
sI1768
I3067
sI1769
I3068
sI1770
I3069
sI1771
I3070
sI1772
I3071
sI1773
I3072
sI1774
I3073
sI1775
I3074
sI1776
I3075
sI1777
I3076
sI1778
I3077
sI1779
I3078
sI1780
I3079
sI1781
I3080
sI1782
I3081
sI1783
I3082
sI1784
I3083
sI1785
I3084
sI1786
I3085
sI1787
I3086
sI1788
I3087
sI1789
I3088
sI1790
I3089
sI1791
I3090
sI1792
I3091
sI1793
I3092
sI1794
I3093
sI1795
I3094
sI1796
I3095
sI1797
I3096
sI1798
I3097
sI1799
I3098
sI1800
I3099
sI1801
I3100
sI1802
I3101
sI1803
I3102
sI1804
I3103
sI1805
I3104
sI1806
I3105
sI1807
I3106
sI1808
I3107
sI1809
I3108
sI1810
I3109
sI1811
I3110
sI1812
I3111
sI1813
I3112
sI1814
I3113
sI1815
I3114
sI1816
I3115
sI1817
I3116
sI1818
I3117
sI1819
I3118
sI1820
I3119
sI1821
I3120
sI1822
I3121
sI1823
I3122
sI1824
I3127
sI1825
I3137
sI1826
I3139
sI1827
I3140
sI1828
I3143
sI1829
I3144
sI1830
I3145
sI1831
I3146
sI1832
I3147
sI1833
I3148
sI1834
I3149
sI1835
I3150
sI1836
I3151
sI1837
I3152
sI1838
I3153
sI1839
I3154
sI1840
I3155
sI1841
I3156
sI1842
I3157
sI1843
I3158
sI1844
I3159
sI1845
I3160
sI1846
I3161
sI1847
I3162
sI1848
I3163
sI1849
I3164
sI1850
I3165
sI1851
I3166
sI1852
I3167
sI1853
I3168
sI1854
I3169
sI1855
I3170
sI1856
I3171
sI1857
I3172
sI1858
I3173
sI1859
I3174
sI1860
I3175
sI1861
I3176
sI1862
I3177
sI1863
I3178
sI1864
I3179
sI1865
I3180
sI1866
I3181
sI1867
I3182
sI1868
I3183
sI1869
I3184
sI1870
I3185
sI1871
I3186
sI1872
I3187
sI1873
I3188
sI1874
I3189
sI1875
I3190
sI1876
I3191
sI1877
I3192
sI1878
I3193
sI1879
I3194
sI1880
I3195
sI1881
I3196
sI1882
I3197
sI1883
I3198
sI1884
I3199
sI1885
I3200
sI1886
I3201
sI1887
I3202
sI1888
I3203
sI1889
I3204
sI1890
I3205
sI1891
I3206
sI1892
I3207
sI1893
I3208
sI1894
I3209
sI1895
I3210
sI1896
I3211
sI1897
I3212
sI1898
I3213
sI1899
I3214
sI1900
I3215
sI1901
I3216
sI1902
I3217
sI1903
I3218
sI1904
I3219
sI1905
I3220
sI1906
I3221
sI1907
I3222
sI1908
I3225
sI1909
I3226
sI1910
I3227
sI1911
I3228
sI1912
I3229
sI1913
I3230
sI1914
I3231
sI1915
I3232
sI1916
I3233
sI1917
I3234
sI1918
I3237
sI1919
I3238
sI1920
I3239
sI1921
I3240
sI1922
I3241
sI1923
I3242
sI1924
I3243
sI1925
I3244
sI1926
I3245
sI1927
I3246
sI1928
I3248
sI1929
I3249
sI1930
I3252
sI1931
I3254
sI1932
I3255
sI1933
I3256
sI1934
I3257
sI1935
I3258
sI1936
I3261
sI1937
I3262
sI1938
I3263
sI1939
I3264
sI1940
I3265
sI1941
I3266
sI1942
I3267
sI1943
I3268
sI1944
I3269
sI1945
I3270
sI1946
I3271
sI1947
I3272
sI1948
I3273
sI1949
I3274
sI1950
I3275
sI1951
I3276
sI1952
I3277
sI1953
I3278
sI1954
I3279
sI1955
I3280
sI1956
I3281
sI1957
I3282
sI1958
I3283
sI1959
I3284
sI1960
I3285
sI1961
I3286
sI1962
I3287
sI1963
I3288
sI1964
I3289
sI1965
I3290
sI1966
I3291
sI1967
I3292
sI1968
I3293
sI1969
I3294
sI1970
I3295
sI1971
I3296
sI1972
I3297
sI1973
I3298
sI1974
I3299
sI1975
I3300
sI1976
I3301
sI1977
I3302
sI1978
I3306
sI1979
I3312
sI1980
I3314
sI1981
I3321
sI1982
I3323
sI1983
I3324
sI1984
I3325
sI1985
I3326
sI1986
I3327
sI1987
I3328
sI1988
I3329
sI1989
I3330
sI1990
I3331
sI1991
I3332
sI1992
I3333
sI1993
I3334
sI1994
I3335
sI1995
I3336
sI1996
I3337
sI1997
I3338
sI1998
I3339
sI1999
I3340
sI2000
I3341
sI2001
I3342
sI2002
I3343
sI2003
I3344
sI2004
I3345
sI2005
I3346
sI2006
I3347
sI2007
I3348
sI2008
I3349
sI2009
I3350
sI2010
I3351
sI2011
I3352
sI2012
I3353
sI2013
I3354
sI2014
I3355
sI2015
I3356
sI2016
I3357
sI2017
I3358
sI2018
I3359
sI2019
I3360
sI2020
I3361
sI2021
I3362
sI2022
I3363
sI2023
I3364
sI2024
I3365
sI2025
I3366
sI2026
I3367
sI2027
I3368
sI2028
I3369
sI2029
I3370
sI2030
I3371
sI2031
I3372
sI2032
I3373
sI2033
I3374
sI2034
I3375
sI2035
I3376
sI2036
I3377
sI2037
I3378
sI2038
I3379
sI2039
I3380
sI2040
I3381
sI2041
I3382
sI2042
I3383
sI2043
I3384
sI2044
I3385
sI2045
I3386
sI2046
I3387
sI2047
I3388
sI2048
I3389
sI2049
I3390
sI2050
I3391
sI2051
I3392
sI2052
I3393
sI2053
I3394
sI2054
I3395
sI2055
I3396
sI2056
I3397
sI2057
I3398
sI2058
I3399
sI2059
I3400
sI2060
I3401
sI2061
I3402
sI2062
I3403
sI2063
I3404
sI2064
I3407
sI2065
I3408
sI2066
I3409
sI2067
I3410
sI2068
I3412
sI2069
I3413
sI2070
I3415
sI2071
I3416
sI2072
I3417
sI2073
I3418
sI2074
I3419
sI2075
I3420
sI2076
I3421
sI2077
I3422
sI2078
I3423
sI2079
I3424
sI2080
I3425
sI2081
I3428
sI2082
I3429
sI2083
I3430
sI2084
I3431
sI2085
I3435
sI2086
I3437
sI2087
I3438
sI2088
I3439
sI2089
I3440
sI2090
I3441
sI2091
I3443
sI2092
I3444
sI2093
I3445
sI2094
I3446
sI2095
I3447
sI2096
I3448
sI2097
I3449
sI2098
I3450
sI2099
I3451
sI2100
I3452
sI2101
I3453
sI2102
I3454
sI2103
I3455
sI2104
I3456
sI2105
I3457
sI2106
I3458
sI2107
I3459
sI2108
I3460
sI2109
I3461
sI2110
I3462
sI2111
I3463
sI2112
I3464
sI2113
I3465
sI2114
I3466
sI2115
I3467
sI2116
I3468
sI2117
I3469
sI2118
I3470
sI2119
I3471
sI2120
I3472
sI2121
I3473
sI2122
I3474
sI2123
I3475
sI2124
I3476
sI2125
I3477
sI2126
I3478
sI2127
I3479
sI2128
I3480
sI2129
I3481
sI2130
I3482
sI2131
I3483
sI2132
I3484
sI2133
I3486
sI2134
I3487
sI2135
I3489
sI2136
I3499
sI2137
I3504
sI2138
I3505
sI2139
I3506
sI2140
I3507
sI2141
I3508
sI2142
I3509
sI2143
I3510
sI2144
I3511
sI2145
I3512
sI2146
I3513
sI2147
I3514
sI2148
I3515
sI2149
I3516
sI2150
I3517
sI2151
I3518
sI2152
I3519
sI2153
I3520
sI2154
I3521
sI2155
I3522
sI2156
I3523
sI2157
I3524
sI2158
I3525
sI2159
I3526
sI2160
I3527
sI2161
I3528
sI2162
I3529
sI2163
I3530
sI2164
I3531
sI2165
I3532
sI2166
I3533
sI2167
I3534
sI2168
I3535
sI2169
I3536
sI2170
I3537
sI2171
I3538
sI2172
I3539
sI2173
I3540
sI2174
I3541
sI2175
I3542
sI2176
I3543
sI2177
I3544
sI2178
I3545
sI2179
I3546
sI2180
I3547
sI2181
I3548
sI2182
I3549
sI2183
I3550
sI2184
I3551
sI2185
I3552
sI2186
I3553
sI2187
I3554
sI2188
I3555
sI2189
I3556
sI2190
I3557
sI2191
I3558
sI2192
I3559
sI2193
I3560
sI2194
I3561
sI2195
I3562
sI2196
I3563
sI2197
I3564
sI2198
I3565
sI2199
I3566
sI2200
I3567
sI2201
I3568
sI2202
I3569
sI2203
I3570
sI2204
I3571
sI2205
I3572
sI2206
I3573
sI2207
I3574
sI2208
I3575
sI2209
I3576
sI2210
I3577
sI2211
I3578
sI2212
I3579
sI2213
I3580
sI2214
I3581
sI2215
I3584
sI2216
I3585
sI2217
I3587
sI2218
I3588
sI2219
I3589
sI2220
I3590
sI2221
I3591
sI2222
I3592
sI2223
I3593
sI2224
I3596
sI2225
I3597
sI2226
I3598
sI2227
I3599
sI2228
I3603
sI2229
I3609
sI2230
I3610
sI2231
I3611
sI2232
I3612
sI2233
I3613
sI2234
I3621
sI2235
I3622
sI2236
I3623
sI2237
I3624
sI2238
I3625
sI2239
I3626
sI2240
I3627
sI2241
I3628
sI2242
I3629
sI2243
I3630
sI2244
I3631
sI2245
I3632
sI2246
I3633
sI2247
I3634
sI2248
I3635
sI2249
I3636
sI2250
I3637
sI2251
I3638
sI2252
I3639
sI2253
I3640
sI2254
I3641
sI2255
I3642
sI2256
I3643
sI2257
I3644
sI2258
I3645
sI2259
I3646
sI2260
I3647
sI2261
I3648
sI2262
I3649
sI2263
I3650
sI2264
I3651
sI2265
I3652
sI2266
I3653
sI2267
I3654
sI2268
I3655
sI2269
I3656
sI2270
I3657
sI2271
I3658
sI2272
I3659
sI2273
I3660
sI2274
I3661
sI2275
I3662
sI2276
I3663
sI2277
I3666
sI2278
I3672
sI2279
I3675
sI2280
I3676
sI2281
I3681
sI2282
I3682
sI2283
I3683
sI2284
I3684
sI2285
I3685
sI2286
I3686
sI2287
I3687
sI2288
I3688
sI2289
I3689
sI2290
I3690
sI2291
I3691
sI2292
I3692
sI2293
I3693
sI2294
I3694
sI2295
I3695
sI2296
I3696
sI2297
I3697
sI2298
I3698
sI2299
I3699
sI2300
I3700
sI2301
I3701
sI2302
I3702
sI2303
I3703
sI2304
I3704
sI2305
I3705
sI2306
I3706
sI2307
I3707
sI2308
I3708
sI2309
I3709
sI2310
I3710
sI2311
I3711
sI2312
I3712
sI2313
I3713
sI2314
I3714
sI2315
I3715
sI2316
I3716
sI2317
I3717
sI2318
I3718
sI2319
I3719
sI2320
I3720
sI2321
I3721
sI2322
I3722
sI2323
I3723
sI2324
I3724
sI2325
I3725
sI2326
I3726
sI2327
I3727
sI2328
I3728
sI2329
I3729
sI2330
I3730
sI2331
I3731
sI2332
I3732
sI2333
I3733
sI2334
I3734
sI2335
I3735
sI2336
I3736
sI2337
I3737
sI2338
I3738
sI2339
I3739
sI2340
I3740
sI2341
I3741
sI2342
I3742
sI2343
I3743
sI2344
I3744
sI2345
I3745
sI2346
I3746
sI2347
I3747
sI2348
I3748
sI2349
I3749
sI2350
I3750
sI2351
I3751
sI2352
I3752
sI2353
I3753
sI2354
I3754
sI2355
I3755
sI2356
I3756
sI2357
I3757
sI2358
I3758
sI2359
I3759
sI2360
I3760
sI2361
I3761
sI2362
I3762
sI2363
I3765
sI2364
I3766
sI2365
I3767
sI2366
I3768
sI2367
I3774
sI2368
I3777
sI2369
I3779
sI2370
I3789
sI2371
I3791
sI2372
I3797
sI2373
I3798
sI2374
I3800
sI2375
I3801
sI2376
I3802
sI2377
I3803
sI2378
I3804
sI2379
I3805
sI2380
I3806
sI2381
I3807
sI2382
I3808
sI2383
I3809
sI2384
I3810
sI2385
I3811
sI2386
I3812
sI2387
I3813
sI2388
I3814
sI2389
I3815
sI2390
I3816
sI2391
I3817
sI2392
I3818
sI2393
I3819
sI2394
I3820
sI2395
I3821
sI2396
I3822
sI2397
I3823
sI2398
I3824
sI2399
I3825
sI2400
I3826
sI2401
I3827
sI2402
I3828
sI2403
I3829
sI2404
I3830
sI2405
I3831
sI2406
I3832
sI2407
I3833
sI2408
I3834
sI2409
I3835
sI2410
I3836
sI2411
I3837
sI2412
I3838
sI2413
I3839
sI2414
I3840
sI2415
I3841
sI2416
I3842
sI2417
I3843
sI2418
I3844
sI2419
I3845
sI2420
I3846
sI2421
I3847
sI2422
I3856
sI2423
I3862
sI2424
I3863
sI2425
I3865
sI2426
I3866
sI2427
I3867
sI2428
I3868
sI2429
I3869
sI2430
I3870
sI2431
I3871
sI2432
I3872
sI2433
I3873
sI2434
I3874
sI2435
I3875
sI2436
I3876
sI2437
I3877
sI2438
I3878
sI2439
I3879
sI2440
I3880
sI2441
I3881
sI2442
I3882
sI2443
I3883
sI2444
I3884
sI2445
I3885
sI2446
I3886
sI2447
I3887
sI2448
I3888
sI2449
I3889
sI2450
I3890
sI2451
I3891
sI2452
I3892
sI2453
I3893
sI2454
I3894
sI2455
I3895
sI2456
I3896
sI2457
I3897
sI2458
I3898
sI2459
I3899
sI2460
I3900
sI2461
I3901
sI2462
I3902
sI2463
I3903
sI2464
I3904
sI2465
I3905
sI2466
I3906
sI2467
I3907
sI2468
I3908
sI2469
I3909
sI2470
I3910
sI2471
I3911
sI2472
I3912
sI2473
I3913
sI2474
I3914
sI2475
I3915
sI2476
I3916
sI2477
I3917
sI2478
I3918
sI2479
I3919
sI2480
I3920
sI2481
I3921
sI2482
I3922
sI2483
I3923
sI2484
I3924
sI2485
I3925
sI2486
I3926
sI2487
I3927
sI2488
I3928
sI2489
I3929
sI2490
I3930
sI2491
I3931
sI2492
I3932
sI2493
I3933
sI2494
I3934
sI2495
I3935
sI2496
I3936
sI2497
I3937
sI2498
I3938
sI2499
I3939
sI2500
I3940
sI2501
I3941
sI2502
I3944
sI2503
I3945
sI2504
I3946
sI2505
I3947
sI2506
I3948
sI2507
I3971
sI2508
I3972
sI2509
I3978
sI2510
I3979
sI2511
I3981
sI2512
I3982
sI2513
I3984
sI2514
I3985
sI2515
I3986
sI2516
I3987
sI2517
I3988
sI2518
I3989
sI2519
I3990
sI2520
I3991
sI2521
I3992
sI2522
I3993
sI2523
I3994
sI2524
I3995
sI2525
I3996
sI2526
I3997
sI2527
I3998
sI2528
I3999
sI2529
I4000
sI2530
I4001
sI2531
I4002
sI2532
I4003
sI2533
I4004
sI2534
I4005
sI2535
I4006
sI2536
I4007
sI2537
I4008
sI2538
I4009
sI2539
I4010
sI2540
I4011
sI2541
I4012
sI2542
I4013
sI2543
I4014
sI2544
I4015
sI2545
I4016
sI2546
I4017
sI2547
I4018
sI2548
I4019
sI2549
I4020
sI2550
I4021
sI2551
I4022
sI2552
I4023
sI2553
I4025
sI2554
I4030
sI2555
I4033
sI2556
I4036
sI2557
I4037
sI2558
I4043
sI2559
I4044
sI2560
I4045
sI2561
I4046
sI2562
I4047
sI2563
I4048
sI2564
I4049
sI2565
I4050
sI2566
I4051
sI2567
I4052
sI2568
I4053
sI2569
I4054
sI2570
I4055
sI2571
I4056
sI2572
I4057
sI2573
I4058
sI2574
I4059
sI2575
I4060
sI2576
I4061
sI2577
I4062
sI2578
I4063
sI2579
I4064
sI2580
I4065
sI2581
I4066
sI2582
I4067
sI2583
I4068
sI2584
I4069
sI2585
I4070
sI2586
I4071
sI2587
I4072
sI2588
I4073
sI2589
I4074
sI2590
I4075
sI2591
I4076
sI2592
I4077
sI2593
I4078
sI2594
I4079
sI2595
I4080
sI2596
I4081
sI2597
I4082
sI2598
I4083
sI2599
I4084
sI2600
I4085
sI2601
I4086
sI2602
I4087
sI2603
I4088
sI2604
I4089
sI2605
I4090
sI2606
I4091
sI2607
I4092
sI2608
I4093
sI2609
I4094
sI2610
I4095
sI2611
I4096
sI2612
I4097
sI2613
I4098
sI2614
I4099
sI2615
I4100
sI2616
I4101
sI2617
I4102
sI2618
I4103
sI2619
I4104
sI2620
I4105
sI2621
I4106
sI2622
I4107
sI2623
I4108
sI2624
I4109
sI2625
I4110
sI2626
I4111
sI2627
I4112
sI2628
I4113
sI2629
I4114
sI2630
I4115
sI2631
I4116
sI2632
I4117
sI2633
I4118
sI2634
I4120
sI2635
I4121
sI2636
I4122
sI2637
I4123
sI2638
I4124
sI2639
I4125
sI2640
I4127
sI2641
I4129
sI2642
I4134
sI2643
I4135
sI2644
I4143
sI2645
I4152
sI2646
I4158
sI2647
I4159
sI2648
I4160
sI2649
I4161
sI2650
I4162
sI2651
I4163
sI2652
I4164
sI2653
I4165
sI2654
I4166
sI2655
I4167
sI2656
I4168
sI2657
I4169
sI2658
I4170
sI2659
I4171
sI2660
I4172
sI2661
I4173
sI2662
I4174
sI2663
I4175
sI2664
I4176
sI2665
I4177
sI2666
I4178
sI2667
I4179
sI2668
I4180
sI2669
I4181
sI2670
I4182
sI2671
I4183
sI2672
I4184
sI2673
I4185
sI2674
I4186
sI2675
I4187
sI2676
I4188
sI2677
I4189
sI2678
I4190
sI2679
I4191
sI2680
I4192
sI2681
I4193
sI2682
I4194
sI2683
I4195
sI2684
I4196
sI2685
I4197
sI2686
I4198
sI2687
I4199
sI2688
I4200
sI2689
I4201
sI2690
I4202
sI2691
I4203
sI2692
I4204
sI2693
I4205
sI2694
I4207
sI2695
I4210
sI2696
I4217
sI2697
I4218
sI2698
I4219
sI2699
I4220
sI2700
I4222
sI2701
I4223
sI2702
I4224
sI2703
I4225
sI2704
I4226
sI2705
I4227
sI2706
I4228
sI2707
I4229
sI2708
I4230
sI2709
I4231
sI2710
I4232
sI2711
I4233
sI2712
I4234
sI2713
I4235
sI2714
I4236
sI2715
I4237
sI2716
I4238
sI2717
I4239
sI2718
I4240
sI2719
I4241
sI2720
I4242
sI2721
I4243
sI2722
I4244
sI2723
I4245
sI2724
I4246
sI2725
I4247
sI2726
I4249
sI2727
I4250
sI2728
I4251
sI2729
I4252
sI2730
I4253
sI2731
I4254
sI2732
I4255
sI2733
I4256
sI2734
I4257
sI2735
I4258
sI2736
I4259
sI2737
I4260
sI2738
I4261
sI2739
I4262
sI2740
I4263
sI2741
I4264
sI2742
I4265
sI2743
I4266
sI2744
I4267
sI2745
I4268
sI2746
I4269
sI2747
I4270
sI2748
I4271
sI2749
I4272
sI2750
I4273
sI2751
I4274
sI2752
I4275
sI2753
I4276
sI2754
I4277
sI2755
I4278
sI2756
I4279
sI2757
I4280
sI2758
I4281
sI2759
I4282
sI2760
I4283
sI2761
I4284
sI2762
I4285
sI2763
I4286
sI2764
I4287
sI2765
I4288
sI2766
I4289
sI2767
I4290
sI2768
I4291
sI2769
I4292
sI2770
I4293
sI2771
I4294
sI2772
I4295
sI2773
I4296
sI2774
I4297
sI2775
I4298
sI2776
I4299
sI2777
I4300
sI2778
I4301
sI2779
I4302
sI2780
I4303
sI2781
I4305
sI2782
I4315
sI2783
I4317
sI2784
I4341
sI2785
I4345
sI2786
I4346
sI2787
I4347
sI2788
I4348
sI2789
I4349
sI2790
I4350
sI2791
I4351
sI2792
I4352
sI2793
I4353
sI2794
I4354
sI2795
I4355
sI2796
I4356
sI2797
I4357
sI2798
I4358
sI2799
I4359
sI2800
I4360
sI2801
I4361
sI2802
I4362
sI2803
I4363
sI2804
I4364
sI2805
I4365
sI2806
I4366
sI2807
I4367
sI2808
I4368
sI2809
I4369
sI2810
I4370
sI2811
I4371
sI2812
I4372
sI2813
I4373
sI2814
I4374
sI2815
I4375
sI2816
I4376
sI2817
I4384
sI2818
I4385
sI2819
I4386
sI2820
I4387
sI2821
I4396
sI2822
I4402
sI2823
I4403
sI2824
I4404
sI2825
I4405
sI2826
I4406
sI2827
I4407
sI2828
I4408
sI2829
I4409
sI2830
I4410
sI2831
I4411
sI2832
I4412
sI2833
I4413
sI2834
I4414
sI2835
I4415
sI2836
I4416
sI2837
I4417
sI2838
I4418
sI2839
I4419
sI2840
I4420
sI2841
I4421
sI2842
I4422
sI2843
I4423
sI2844
I4424
sI2845
I4425
sI2846
I4426
sI2847
I4427
sI2848
I4428
sI2849
I4429
sI2850
I4430
sI2851
I4431
sI2852
I4432
sI2853
I4433
sI2854
I4434
sI2855
I4435
sI2856
I4436
sI2857
I4437
sI2858
I4438
sI2859
I4439
sI2860
I4440
sI2861
I4441
sI2862
I4442
sI2863
I4443
sI2864
I4444
sI2865
I4445
sI2866
I4446
sI2867
I4447
sI2868
I4448
sI2869
I4449
sI2870
I4450
sI2871
I4451
sI2872
I4452
sI2873
I4453
sI2874
I4454
sI2875
I4455
sI2876
I4456
sI2877
I4457
sI2878
I4458
sI2879
I4459
sI2880
I4460
sI2881
I4461
sI2882
I4462
sI2883
I4463
sI2884
I4464
sI2885
I4465
sI2886
I4466
sI2887
I4467
sI2888
I4468
sI2889
I4469
sI2890
I4470
sI2891
I4471
sI2892
I4472
sI2893
I4473
sI2894
I4474
sI2895
I4475
sI2896
I4476
sI2897
I4477
sI2898
I4479
sI2899
I4480
sI2900
I4481
sI2901
I4482
sI2902
I4483
sI2903
I4491
sI2904
I4495
sI2905
I4517
sI2906
I4520
sI2907
I4522
sI2908
I4524
sI2909
I4525
sI2910
I4526
sI2911
I4527
sI2912
I4528
sI2913
I4529
sI2914
I4530
sI2915
I4531
sI2916
I4532
sI2917
I4533
sI2918
I4534
sI2919
I4535
sI2920
I4536
sI2921
I4537
sI2922
I4538
sI2923
I4539
sI2924
I4540
sI2925
I4541
sI2926
I4542
sI2927
I4543
sI2928
I4544
sI2929
I4545
sI2930
I4546
sI2931
I4547
sI2932
I4548
sI2933
I4549
sI2934
I4550
sI2935
I4551
sI2936
I4552
sI2937
I4553
sI2938
I4554
sI2939
I4555
sI2940
I4556
sI2941
I4557
sI2942
I4558
sI2943
I4559
sI2944
I4570
sI2945
I4571
sI2946
I4572
sI2947
I4574
sI2948
I4575
sI2949
I4576
sI2950
I4577
sI2951
I4581
sI2952
I4582
sI2953
I4583
sI2954
I4584
sI2955
I4585
sI2956
I4586
sI2957
I4587
sI2958
I4588
sI2959
I4589
sI2960
I4590
sI2961
I4591
sI2962
I4592
sI2963
I4593
sI2964
I4594
sI2965
I4595
sI2966
I4596
sI2967
I4597
sI2968
I4598
sI2969
I4599
sI2970
I4600
sI2971
I4601
sI2972
I4602
sI2973
I4603
sI2974
I4604
sI2975
I4605
sI2976
I4606
sI2977
I4607
sI2978
I4608
sI2979
I4609
sI2980
I4610
sI2981
I4611
sI2982
I4612
sI2983
I4613
sI2984
I4614
sI2985
I4616
sI2986
I4617
sI2987
I4618
sI2988
I4619
sI2989
I4620
sI2990
I4621
sI2991
I4622
sI2992
I4623
sI2993
I4624
sI2994
I4625
sI2995
I4626
sI2996
I4627
sI2997
I4628
sI2998
I4629
sI2999
I4630
sI3000
I4631
sI3001
I4632
sI3002
I4633
sI3003
I4634
sI3004
I4635
sI3005
I4636
sI3006
I4637
sI3007
I4638
sI3008
I4639
sI3009
I4640
sI3010
I4641
sI3011
I4642
sI3012
I4643
sI3013
I4644
sI3014
I4645
sI3015
I4646
sI3016
I4647
sI3017
I4648
sI3018
I4649
sI3019
I4650
sI3020
I4651
sI3021
I4652
sI3022
I4653
sI3023
I4654
sI3024
I4655
sI3025
I4656
sI3026
I4657
sI3027
I4658
sI3028
I4659
sI3029
I4660
sI3030
I4661
sI3031
I4665
sI3032
I4667
sI3033
I4671
sI3034
I4674
sI3035
I4675
sI3036
I4676
sI3037
I4707
sI3038
I4708
sI3039
I4709
sI3040
I4710
sI3041
I4711
sI3042
I4712
sI3043
I4713
sI3044
I4714
sI3045
I4715
sI3046
I4716
sI3047
I4717
sI3048
I4718
sI3049
I4719
sI3050
I4720
sI3051
I4721
sI3052
I4722
sI3053
I4723
sI3054
I4724
sI3055
I4725
sI3056
I4726
sI3057
I4727
sI3058
I4728
sI3059
I4729
sI3060
I4730
sI3061
I4731
sI3062
I4732
sI3063
I4733
sI3064
I4734
sI3065
I4735
sI3066
I4736
sI3067
I4739
sI3068
I4740
sI3069
I4741
sI3070
I4743
sI3071
I4744
sI3072
I4755
sI3073
I4756
sI3074
I4757
sI3075
I4761
sI3076
I4762
sI3077
I4763
sI3078
I4764
sI3079
I4765
sI3080
I4766
sI3081
I4767
sI3082
I4768
sI3083
I4769
sI3084
I4770
sI3085
I4771
sI3086
I4772
sI3087
I4773
sI3088
I4774
sI3089
I4775
sI3090
I4776
sI3091
I4777
sI3092
I4778
sI3093
I4780
sI3094
I4781
sI3095
I4782
sI3096
I4783
sI3097
I4784
sI3098
I4785
sI3099
I4786
sI3100
I4787
sI3101
I4788
sI3102
I4789
sI3103
I4790
sI3104
I4791
sI3105
I4792
sI3106
I4793
sI3107
I4794
sI3108
I4795
sI3109
I4796
sI3110
I4797
sI3111
I4798
sI3112
I4799
sI3113
I4800
sI3114
I4801
sI3115
I4802
sI3116
I4803
sI3117
I4804
sI3118
I4805
sI3119
I4806
sI3120
I4807
sI3121
I4808
sI3122
I4809
sI3123
I4810
sI3124
I4811
sI3125
I4812
sI3126
I4813
sI3127
I4814
sI3128
I4815
sI3129
I4816
sI3130
I4817
sI3131
I4818
sI3132
I4819
sI3133
I4820
sI3134
I4821
sI3135
I4822
sI3136
I4823
sI3137
I4824
sI3138
I4825
sI3139
I4826
sI3140
I4827
sI3141
I4828
sI3142
I4829
sI3143
I4830
sI3144
I4831
sI3145
I4832
sI3146
I4833
sI3147
I4834
sI3148
I4835
sI3149
I4836
sI3150
I4837
sI3151
I4838
sI3152
I4839
sI3153
I4840
sI3154
I4841
sI3155
I4842
sI3156
I4844
sI3157
I4849
sI3158
I4851
sI3159
I4853
sI3160
I4855
sI3161
I4858
sI3162
I4861
sI3163
I4882
sI3164
I4888
sI3165
I4889
sI3166
I4890
sI3167
I4891
sI3168
I4892
sI3169
I4893
sI3170
I4894
sI3171
I4895
sI3172
I4896
sI3173
I4897
sI3174
I4898
sI3175
I4899
sI3176
I4900
sI3177
I4901
sI3178
I4902
sI3179
I4903
sI3180
I4904
sI3181
I4905
sI3182
I4906
sI3183
I4907
sI3184
I4908
sI3185
I4909
sI3186
I4910
sI3187
I4911
sI3188
I4912
sI3189
I4913
sI3190
I4915
sI3191
I4920
sI3192
I4921
sI3193
I4922
sI3194
I4923
sI3195
I4924
sI3196
I4925
sI3197
I4926
sI3198
I4932
sI3199
I4941
sI3200
I4942
sI3201
I4943
sI3202
I4944
sI3203
I4945
sI3204
I4946
sI3205
I4947
sI3206
I4948
sI3207
I4949
sI3208
I4950
sI3209
I4951
sI3210
I4952
sI3211
I4953
sI3212
I4954
sI3213
I4955
sI3214
I4956
sI3215
I4957
sI3216
I4958
sI3217
I4959
sI3218
I4960
sI3219
I4961
sI3220
I4962
sI3221
I4963
sI3222
I4964
sI3223
I4965
sI3224
I4966
sI3225
I4967
sI3226
I4968
sI3227
I4969
sI3228
I4970
sI3229
I4971
sI3230
I4972
sI3231
I4973
sI3232
I4974
sI3233
I4975
sI3234
I4976
sI3235
I4977
sI3236
I4978
sI3237
I4979
sI3238
I4980
sI3239
I4981
sI3240
I4982
sI3241
I4983
sI3242
I4984
sI3243
I4985
sI3244
I4986
sI3245
I4987
sI3246
I4988
sI3247
I4989
sI3248
I4990
sI3249
I4991
sI3250
I4992
sI3251
I4993
sI3252
I4994
sI3253
I4995
sI3254
I4996
sI3255
I4997
sI3256
I4998
sI3257
I4999
sI3258
I5000
sI3259
I5001
sI3260
I5002
sI3261
I5003
sI3262
I5004
sI3263
I5005
sI3264
I5006
sI3265
I5007
sI3266
I5008
sI3267
I5009
sI3268
I5010
sI3269
I5012
sI3270
I5013
sI3271
I5014
sI3272
I5015
sI3273
I5016
sI3274
I5017
sI3275
I5018
sI3276
I5019
sI3277
I5020
sI3278
I5021
sI3279
I5022
sI3280
I5025
sI3281
I5030
sI3282
I5035
sI3283
I5041
sI3284
I5042
sI3285
I5047
sI3286
I5048
sI3287
I5049
sI3288
I5050
sI3289
I5062
sI3290
I5063
sI3291
I5066
sI3292
I5069
sI3293
I5070
sI3294
I5071
sI3295
I5072
sI3296
I5073
sI3297
I5074
sI3298
I5075
sI3299
I5076
sI3300
I5077
sI3301
I5078
sI3302
I5079
sI3303
I5080
sI3304
I5081
sI3305
I5082
sI3306
I5083
sI3307
I5084
sI3308
I5085
sI3309
I5086
sI3310
I5087
sI3311
I5088
sI3312
I5089
sI3313
I5090
sI3314
I5091
sI3315
I5093
sI3316
I5097
sI3317
I5098
sI3318
I5099
sI3319
I5101
sI3320
I5102
sI3321
I5110
sI3322
I5111
sI3323
I5112
sI3324
I5114
sI3325
I5115
sI3326
I5121
sI3327
I5122
sI3328
I5123
sI3329
I5124
sI3330
I5125
sI3331
I5126
sI3332
I5127
sI3333
I5128
sI3334
I5129
sI3335
I5130
sI3336
I5131
sI3337
I5132
sI3338
I5133
sI3339
I5134
sI3340
I5135
sI3341
I5136
sI3342
I5137
sI3343
I5139
sI3344
I5140
sI3345
I5141
sI3346
I5142
sI3347
I5143
sI3348
I5144
sI3349
I5145
sI3350
I5146
sI3351
I5147
sI3352
I5148
sI3353
I5149
sI3354
I5150
sI3355
I5151
sI3356
I5152
sI3357
I5153
sI3358
I5154
sI3359
I5155
sI3360
I5156
sI3361
I5157
sI3362
I5158
sI3363
I5159
sI3364
I5160
sI3365
I5161
sI3366
I5162
sI3367
I5163
sI3368
I5164
sI3369
I5165
sI3370
I5166
sI3371
I5167
sI3372
I5168
sI3373
I5169
sI3374
I5170
sI3375
I5171
sI3376
I5172
sI3377
I5173
sI3378
I5174
sI3379
I5175
sI3380
I5176
sI3381
I5177
sI3382
I5178
sI3383
I5179
sI3384
I5180
sI3385
I5181
sI3386
I5182
sI3387
I5183
sI3388
I5184
sI3389
I5185
sI3390
I5186
sI3391
I5187
sI3392
I5188
sI3393
I5189
sI3394
I5190
sI3395
I5191
sI3396
I5192
sI3397
I5193
sI3398
I5194
sI3399
I5195
sI3400
I5196
sI3401
I5197
sI3402
I5198
sI3403
I5199
sI3404
I5201
sI3405
I5204
sI3406
I5205
sI3407
I5209
sI3408
I5212
sI3409
I5215
sI3410
I5216
sI3411
I5219
sI3412
I5222
sI3413
I5223
sI3414
I5227
sI3415
I5228
sI3416
I5229
sI3417
I5240
sI3418
I5241
sI3419
I5246
sI3420
I5247
sI3421
I5248
sI3422
I5249
sI3423
I5250
sI3424
I5251
sI3425
I5252
sI3426
I5253
sI3427
I5254
sI3428
I5255
sI3429
I5256
sI3430
I5257
sI3431
I5258
sI3432
I5259
sI3433
I5260
sI3434
I5261
sI3435
I5262
sI3436
I5263
sI3437
I5264
sI3438
I5265
sI3439
I5266
sI3440
I5267
sI3441
I5268
sI3442
I5269
sI3443
I5270
sI3444
I5271
sI3445
I5274
sI3446
I5277
sI3447
I5280
sI3448
I5295
sI3449
I5296
sI3450
I5299
sI3451
I5301
sI3452
I5302
sI3453
I5303
sI3454
I5304
sI3455
I5305
sI3456
I5306
sI3457
I5307
sI3458
I5308
sI3459
I5309
sI3460
I5310
sI3461
I5311
sI3462
I5312
sI3463
I5313
sI3464
I5314
sI3465
I5315
sI3466
I5316
sI3467
I5317
sI3468
I5318
sI3469
I5319
sI3470
I5320
sI3471
I5321
sI3472
I5322
sI3473
I5323
sI3474
I5324
sI3475
I5325
sI3476
I5326
sI3477
I5327
sI3478
I5328
sI3479
I5329
sI3480
I5330
sI3481
I5331
sI3482
I5332
sI3483
I5333
sI3484
I5334
sI3485
I5335
sI3486
I5336
sI3487
I5337
sI3488
I5338
sI3489
I5339
sI3490
I5340
sI3491
I5341
sI3492
I5342
sI3493
I5343
sI3494
I5344
sI3495
I5345
sI3496
I5346
sI3497
I5347
sI3498
I5348
sI3499
I5349
sI3500
I5350
sI3501
I5351
sI3502
I5352
sI3503
I5353
sI3504
I5354
sI3505
I5355
sI3506
I5356
sI3507
I5357
sI3508
I5358
sI3509
I5359
sI3510
I5360
sI3511
I5361
sI3512
I5362
sI3513
I5363
sI3514
I5364
sI3515
I5365
sI3516
I5366
sI3517
I5367
sI3518
I5368
sI3519
I5369
sI3520
I5370
sI3521
I5371
sI3522
I5374
sI3523
I5375
sI3524
I5377
sI3525
I5378
sI3526
I5379
sI3527
I5380
sI3528
I5381
sI3529
I5384
sI3530
I5385
sI3531
I5395
sI3532
I5396
sI3533
I5397
sI3534
I5398
sI3535
I5399
sI3536
I5400
sI3537
I5401
sI3538
I5402
sI3539
I5403
sI3540
I5404
sI3541
I5405
sI3542
I5408
sI3543
I5409
sI3544
I5415
sI3545
I5416
sI3546
I5421
sI3547
I5430
sI3548
I5431
sI3549
I5432
sI3550
I5433
sI3551
I5434
sI3552
I5435
sI3553
I5436
sI3554
I5437
sI3555
I5438
sI3556
I5439
sI3557
I5440
sI3558
I5441
sI3559
I5442
sI3560
I5443
sI3561
I5444
sI3562
I5445
sI3563
I5446
sI3564
I5447
sI3565
I5448
sI3566
I5449
sI3567
I5451
sI3568
I5452
sI3569
I5453
sI3570
I5455
sI3571
I5460
sI3572
I5469
sI3573
I5475
sI3574
I5477
sI3575
I5480
sI3576
I5481
sI3577
I5482
sI3578
I5483
sI3579
I5484
sI3580
I5485
sI3581
I5486
sI3582
I5487
sI3583
I5488
sI3584
I5489
sI3585
I5490
sI3586
I5491
sI3587
I5492
sI3588
I5493
sI3589
I5494
sI3590
I5495
sI3591
I5496
sI3592
I5497
sI3593
I5498
sI3594
I5499
sI3595
I5500
sI3596
I5501
sI3597
I5502
sI3598
I5503
sI3599
I5504
sI3600
I5505
sI3601
I5506
sI3602
I5507
sI3603
I5508
sI3604
I5509
sI3605
I5510
sI3606
I5511
sI3607
I5512
sI3608
I5513
sI3609
I5514
sI3610
I5515
sI3611
I5516
sI3612
I5517
sI3613
I5518
sI3614
I5519
sI3615
I5520
sI3616
I5521
sI3617
I5522
sI3618
I5523
sI3619
I5524
sI3620
I5525
sI3621
I5526
sI3622
I5527
sI3623
I5528
sI3624
I5529
sI3625
I5530
sI3626
I5531
sI3627
I5532
sI3628
I5533
sI3629
I5534
sI3630
I5535
sI3631
I5536
sI3632
I5537
sI3633
I5538
sI3634
I5539
sI3635
I5540
sI3636
I5541
sI3637
I5542
sI3638
I5543
sI3639
I5544
sI3640
I5545
sI3641
I5546
sI3642
I5547
sI3643
I5548
sI3644
I5549
sI3645
I5550
sI3646
I5551
sI3647
I5552
sI3648
I5554
sI3649
I5555
sI3650
I5556
sI3651
I5557
sI3652
I5558
sI3653
I5559
sI3654
I5560
sI3655
I5562
sI3656
I5563
sI3657
I5564
sI3658
I5566
sI3659
I5569
sI3660
I5572
sI3661
I5573
sI3662
I5574
sI3663
I5577
sI3664
I5579
sI3665
I5581
sI3666
I5582
sI3667
I5583
sI3668
I5584
sI3669
I5585
sI3670
I5586
sI3671
I5588
sI3672
I5589
sI3673
I5590
sI3674
I5610
sI3675
I5612
sI3676
I5613
sI3677
I5614
sI3678
I5615
sI3679
I5616
sI3680
I5617
sI3681
I5618
sI3682
I5619
sI3683
I5620
sI3684
I5621
sI3685
I5622
sI3686
I5623
sI3687
I5624
sI3688
I5625
sI3689
I5626
sI3690
I5627
sI3691
I5628
sI3692
I5629
sI3693
I5630
sI3694
I5631
sI3695
I5635
sI3696
I5650
sI3697
I5652
sI3698
I5660
sI3699
I5661
sI3700
I5662
sI3701
I5663
sI3702
I5664
sI3703
I5665
sI3704
I5666
sI3705
I5667
sI3706
I5668
sI3707
I5669
sI3708
I5670
sI3709
I5671
sI3710
I5672
sI3711
I5673
sI3712
I5674
sI3713
I5675
sI3714
I5676
sI3715
I5677
sI3716
I5678
sI3717
I5679
sI3718
I5680
sI3719
I5681
sI3720
I5682
sI3721
I5683
sI3722
I5684
sI3723
I5685
sI3724
I5686
sI3725
I5687
sI3726
I5688
sI3727
I5689
sI3728
I5690
sI3729
I5691
sI3730
I5692
sI3731
I5693
sI3732
I5694
sI3733
I5695
sI3734
I5696
sI3735
I5697
sI3736
I5698
sI3737
I5699
sI3738
I5700
sI3739
I5701
sI3740
I5702
sI3741
I5703
sI3742
I5704
sI3743
I5705
sI3744
I5706
sI3745
I5707
sI3746
I5708
sI3747
I5709
sI3748
I5710
sI3749
I5711
sI3750
I5712
sI3751
I5713
sI3752
I5714
sI3753
I5715
sI3754
I5716
sI3755
I5717
sI3756
I5718
sI3757
I5719
sI3758
I5720
sI3759
I5721
sI3760
I5722
sI3761
I5723
sI3762
I5724
sI3763
I5725
sI3764
I5726
sI3765
I5727
sI3766
I5728
sI3767
I5729
sI3768
I5730
sI3769
I5733
sI3770
I5734
sI3771
I5735
sI3772
I5736
sI3773
I5737
sI3774
I5738
sI3775
I5739
sI3776
I5740
sI3777
I5741
sI3778
I5742
sI3779
I5743
sI3780
I5744
sI3781
I5745
sI3782
I5748
sI3783
I5750
sI3784
I5751
sI3785
I5752
sI3786
I5753
sI3787
I5754
sI3788
I5758
sI3789
I5761
sI3790
I5763
sI3791
I5764
sI3792
I5765
sI3793
I5766
sI3794
I5769
sI3795
I5770
sI3796
I5771
sI3797
I5788
sI3798
I5790
sI3799
I5791
sI3800
I5792
sI3801
I5793
sI3802
I5794
sI3803
I5795
sI3804
I5796
sI3805
I5797
sI3806
I5798
sI3807
I5799
sI3808
I5800
sI3809
I5801
sI3810
I5802
sI3811
I5803
sI3812
I5804
sI3813
I5805
sI3814
I5806
sI3815
I5807
sI3816
I5808
sI3817
I5809
sI3818
I5810
sI3819
I5811
sI3820
I5812
sI3821
I5813
sI3822
I5814
sI3823
I5815
sI3824
I5839
sI3825
I5840
sI3826
I5841
sI3827
I5842
sI3828
I5843
sI3829
I5844
sI3830
I5845
sI3831
I5846
sI3832
I5847
sI3833
I5848
sI3834
I5849
sI3835
I5850
sI3836
I5851
sI3837
I5852
sI3838
I5853
sI3839
I5854
sI3840
I5855
sI3841
I5856
sI3842
I5857
sI3843
I5858
sI3844
I5859
sI3845
I5860
sI3846
I5861
sI3847
I5862
sI3848
I5863
sI3849
I5864
sI3850
I5865
sI3851
I5866
sI3852
I5867
sI3853
I5868
sI3854
I5869
sI3855
I5870
sI3856
I5871
sI3857
I5872
sI3858
I5873
sI3859
I5874
sI3860
I5875
sI3861
I5876
sI3862
I5877
sI3863
I5878
sI3864
I5879
sI3865
I5880
sI3866
I5881
sI3867
I5882
sI3868
I5883
sI3869
I5884
sI3870
I5885
sI3871
I5886
sI3872
I5887
sI3873
I5888
sI3874
I5889
sI3875
I5890
sI3876
I5891
sI3877
I5892
sI3878
I5893
sI3879
I5894
sI3880
I5895
sI3881
I5896
sI3882
I5897
sI3883
I5898
sI3884
I5899
sI3885
I5900
sI3886
I5901
sI3887
I5902
sI3888
I5903
sI3889
I5904
sI3890
I5905
sI3891
I5906
sI3892
I5907
sI3893
I5908
sI3894
I5909
sI3895
I5910
sI3896
I5911
sI3897
I5912
sI3898
I5913
sI3899
I5914
sI3900
I5915
sI3901
I5916
sI3902
I5917
sI3903
I5918
sI3904
I5919
sI3905
I5920
sI3906
I5921
sI3907
I5922
sI3908
I5923
sI3909
I5924
sI3910
I5925
sI3911
I5926
sI3912
I5927
sI3913
I5930
sI3914
I5931
sI3915
I5932
sI3916
I5933
sI3917
I5934
sI3918
I5939
sI3919
I5943
sI3920
I5944
sI3921
I5946
sI3922
I5947
sI3923
I5948
sI3924
I5949
sI3925
I5950
sI3926
I5951
sI3927
I5954
sI3928
I5956
sI3929
I5972
sI3930
I5974
sI3931
I5975
sI3932
I5976
sI3933
I5977
sI3934
I5978
sI3935
I5979
sI3936
I5980
sI3937
I5981
sI3938
I5983
sI3939
I5984
sI3940
I5985
sI3941
I5987
sI3942
I5988
sI3943
I5989
sI3944
I5990
sI3945
I5991
sI3946
I5992
sI3947
I5993
sI3948
I5995
sI3949
I5996
sI3950
I5998
sI3951
I6007
sI3952
I6014
sI3953
I6017
sI3954
I6018
sI3955
I6020
sI3956
I6021
sI3957
I6022
sI3958
I6023
sI3959
I6024
sI3960
I6025
sI3961
I6026
sI3962
I6027
sI3963
I6028
sI3964
I6029
sI3965
I6030
sI3966
I6031
sI3967
I6032
sI3968
I6033
sI3969
I6034
sI3970
I6035
sI3971
I6036
sI3972
I6037
sI3973
I6038
sI3974
I6039
sI3975
I6040
sI3976
I6041
sI3977
I6042
sI3978
I6043
sI3979
I6044
sI3980
I6045
sI3981
I6046
sI3982
I6047
sI3983
I6048
sI3984
I6049
sI3985
I6050
sI3986
I6051
sI3987
I6052
sI3988
I6053
sI3989
I6054
sI3990
I6055
sI3991
I6056
sI3992
I6057
sI3993
I6058
sI3994
I6059
sI3995
I6060
sI3996
I6061
sI3997
I6063
sI3998
I6064
sI3999
I6065
sI4000
I6066
sI4001
I6067
sI4002
I6068
sI4003
I6069
sI4004
I6070
sI4005
I6071
sI4006
I6072
sI4007
I6073
sI4008
I6074
sI4009
I6075
sI4010
I6076
sI4011
I6077
sI4012
I6078
sI4013
I6079
sI4014
I6080
sI4015
I6081
sI4016
I6082
sI4017
I6083
sI4018
I6084
sI4019
I6085
sI4020
I6086
sI4021
I6087
sI4022
I6088
sI4023
I6089
sI4024
I6090
sI4025
I6094
sI4026
I6096
sI4027
I6101
sI4028
I6102
sI4029
I6104
sI4030
I6109
sI4031
I6111
sI4032
I6114
sI4033
I6115
sI4034
I6118
sI4035
I6120
sI4036
I6121
sI4037
I6126
sI4038
I6127
sI4039
I6129
sI4040
I6130
sI4041
I6131
sI4042
I6132
sI4043
I6134
sI4044
I6150
sI4045
I6153
sI4046
I6156
sI4047
I6157
sI4048
I6158
sI4049
I6159
sI4050
I6160
sI4051
I6161
sI4052
I6162
sI4053
I6163
sI4054
I6164
sI4055
I6165
sI4056
I6166
sI4057
I6167
sI4058
I6168
sI4059
I6169
sI4060
I6170
sI4061
I6171
sI4062
I6172
sI4063
I6173
sI4064
I6174
sI4065
I6175
sI4066
I6176
sI4067
I6177
sI4068
I6195
sI4069
I6197
sI4070
I6199
sI4071
I6200
sI4072
I6201
sI4073
I6202
sI4074
I6203
sI4075
I6204
sI4076
I6205
sI4077
I6206
sI4078
I6207
sI4079
I6208
sI4080
I6209
sI4081
I6210
sI4082
I6211
sI4083
I6212
sI4084
I6213
sI4085
I6214
sI4086
I6215
sI4087
I6216
sI4088
I6217
sI4089
I6218
sI4090
I6219
sI4091
I6220
sI4092
I6221
sI4093
I6222
sI4094
I6223
sI4095
I6224
sI4096
I6225
sI4097
I6226
sI4098
I6227
sI4099
I6228
sI4100
I6229
sI4101
I6230
sI4102
I6231
sI4103
I6232
sI4104
I6233
sI4105
I6234
sI4106
I6235
sI4107
I6236
sI4108
I6237
sI4109
I6238
sI4110
I6239
sI4111
I6240
sI4112
I6244
sI4113
I6245
sI4114
I6246
sI4115
I6247
sI4116
I6248
sI4117
I6249
sI4118
I6250
sI4119
I6251
sI4120
I6252
sI4121
I6253
sI4122
I6254
sI4123
I6255
sI4124
I6256
sI4125
I6257
sI4126
I6258
sI4127
I6259
sI4128
I6260
sI4129
I6261
sI4130
I6262
sI4131
I6263
sI4132
I6264
sI4133
I6265
sI4134
I6266
sI4135
I6267
sI4136
I6268
sI4137
I6270
sI4138
I6271
sI4139
I6275
sI4140
I6278
sI4141
I6281
sI4142
I6282
sI4143
I6284
sI4144
I6285
sI4145
I6286
sI4146
I6287
sI4147
I6288
sI4148
I6289
sI4149
I6290
sI4150
I6291
sI4151
I6293
sI4152
I6297
sI4153
I6300
sI4154
I6301
sI4155
I6302
sI4156
I6305
sI4157
I6310
sI4158
I6311
sI4159
I6312
sI4160
I6313
sI4161
I6314
sI4162
I6320
sI4163
I6331
sI4164
I6332
sI4165
I6333
sI4166
I6334
sI4167
I6335
sI4168
I6336
sI4169
I6337
sI4170
I6338
sI4171
I6339
sI4172
I6340
sI4173
I6341
sI4174
I6342
sI4175
I6343
sI4176
I6344
sI4177
I6345
sI4178
I6346
sI4179
I6347
sI4180
I6348
sI4181
I6349
sI4182
I6350
sI4183
I6351
sI4184
I6352
sI4185
I6353
sI4186
I6354
sI4187
I6355
sI4188
I6356
sI4189
I6357
sI4190
I6358
sI4191
I6376
sI4192
I6381
sI4193
I6382
sI4194
I6383
sI4195
I6384
sI4196
I6385
sI4197
I6386
sI4198
I6387
sI4199
I6388
sI4200
I6389
sI4201
I6390
sI4202
I6391
sI4203
I6392
sI4204
I6393
sI4205
I6394
sI4206
I6395
sI4207
I6396
sI4208
I6397
sI4209
I6398
sI4210
I6399
sI4211
I6400
sI4212
I6401
sI4213
I6402
sI4214
I6403
sI4215
I6404
sI4216
I6405
sI4217
I6406
sI4218
I6407
sI4219
I6408
sI4220
I6409
sI4221
I6410
sI4222
I6411
sI4223
I6412
sI4224
I6413
sI4225
I6414
sI4226
I6415
sI4227
I6416
sI4228
I6417
sI4229
I6418
sI4230
I6425
sI4231
I6426
sI4232
I6427
sI4233
I6428
sI4234
I6429
sI4235
I6430
sI4236
I6431
sI4237
I6432
sI4238
I6433
sI4239
I6436
sI4240
I6437
sI4241
I6438
sI4242
I6439
sI4243
I6440
sI4244
I6441
sI4245
I6442
sI4246
I6443
sI4247
I6444
sI4248
I6445
sI4249
I6446
sI4250
I6450
sI4251
I6451
sI4252
I6457
sI4253
I6461
sI4254
I6462
sI4255
I6463
sI4256
I6464
sI4257
I6465
sI4258
I6468
sI4259
I6471
sI4260
I6473
sI4261
I6475
sI4262
I6476
sI4263
I6477
sI4264
I6478
sI4265
I6480
sI4266
I6481
sI4267
I6482
sI4268
I6485
sI4269
I6486
sI4270
I6488
sI4271
I6491
sI4272
I6492
sI4273
I6493
sI4274
I6502
sI4275
I6503
sI4276
I6506
sI4277
I6507
sI4278
I6508
sI4279
I6509
sI4280
I6511
sI4281
I6512
sI4282
I6514
sI4283
I6515
sI4284
I6516
sI4285
I6518
sI4286
I6519
sI4287
I6520
sI4288
I6521
sI4289
I6522
sI4290
I6523
sI4291
I6524
sI4292
I6525
sI4293
I6526
sI4294
I6527
sI4295
I6528
sI4296
I6529
sI4297
I6530
sI4298
I6531
sI4299
I6532
sI4300
I6533
sI4301
I6534
sI4302
I6536
sI4303
I6537
sI4304
I6538
sI4305
I6539
sI4306
I6541
sI4307
I6545
sI4308
I6554
sI4309
I6556
sI4310
I6557
sI4311
I6558
sI4312
I6560
sI4313
I6561
sI4314
I6562
sI4315
I6563
sI4316
I6564
sI4317
I6565
sI4318
I6566
sI4319
I6567
sI4320
I6568
sI4321
I6569
sI4322
I6570
sI4323
I6571
sI4324
I6572
sI4325
I6573
sI4326
I6574
sI4327
I6575
sI4328
I6576
sI4329
I6577
sI4330
I6578
sI4331
I6579
sI4332
I6580
sI4333
I6581
sI4334
I6582
sI4335
I6583
sI4336
I6584
sI4337
I6585
sI4338
I6586
sI4339
I6587
sI4340
I6588
sI4341
I6589
sI4342
I6590
sI4343
I6591
sI4344
I6592
sI4345
I6593
sI4346
I6594
sI4347
I6595
sI4348
I6596
sI4349
I6597
sI4350
I6598
sI4351
I6604
sI4352
I6606
sI4353
I6607
sI4354
I6608
sI4355
I6609
sI4356
I6610
sI4357
I6611
sI4358
I6612
sI4359
I6617
sI4360
I6618
sI4361
I6619
sI4362
I6620
sI4363
I6621
sI4364
I6622
sI4365
I6623
sI4366
I6624
sI4367
I6625
sI4368
I6626
sI4369
I6627
sI4370
I6628
sI4371
I6629
sI4372
I6630
sI4373
I6631
sI4374
I6632
sI4375
I6635
sI4376
I6641
sI4377
I6642
sI4378
I6643
sI4379
I6644
sI4380
I6645
sI4381
I6646
sI4382
I6647
sI4383
I6656
sI4384
I6658
sI4385
I6659
sI4386
I6665
sI4387
I6666
sI4388
I6668
sI4389
I6670
sI4390
I6671
sI4391
I6672
sI4392
I6694
sI4393
I6695
sI4394
I6696
sI4395
I6697
sI4396
I6701
sI4397
I6702
sI4398
I6703
sI4399
I6704
sI4400
I6705
sI4401
I6706
sI4402
I6707
sI4403
I6708
sI4404
I6709
sI4405
I6710
sI4406
I6712
sI4407
I6713
sI4408
I6714
sI4409
I6716
sI4410
I6717
sI4411
I6718
sI4412
I6719
sI4413
I6722
sI4414
I6723
sI4415
I6724
sI4416
I6726
sI4417
I6735
sI4418
I6737
sI4419
I6738
sI4420
I6739
sI4421
I6741
sI4422
I6742
sI4423
I6743
sI4424
I6744
sI4425
I6745
sI4426
I6746
sI4427
I6747
sI4428
I6748
sI4429
I6749
sI4430
I6750
sI4431
I6751
sI4432
I6752
sI4433
I6753
sI4434
I6754
sI4435
I6755
sI4436
I6756
sI4437
I6757
sI4438
I6758
sI4439
I6759
sI4440
I6760
sI4441
I6761
sI4442
I6762
sI4443
I6763
sI4444
I6764
sI4445
I6765
sI4446
I6766
sI4447
I6767
sI4448
I6768
sI4449
I6769
sI4450
I6770
sI4451
I6771
sI4452
I6772
sI4453
I6773
sI4454
I6774
sI4455
I6775
sI4456
I6776
sI4457
I6777
sI4458
I6783
sI4459
I6785
sI4460
I6786
sI4461
I6787
sI4462
I6788
sI4463
I6789
sI4464
I6790
sI4465
I6792
sI4466
I6796
sI4467
I6797
sI4468
I6798
sI4469
I6799
sI4470
I6800
sI4471
I6801
sI4472
I6802
sI4473
I6803
sI4474
I6804
sI4475
I6805
sI4476
I6806
sI4477
I6807
sI4478
I6808
sI4479
I6809
sI4480
I6810
sI4481
I6811
sI4482
I6812
sI4483
I6815
sI4484
I6816
sI4485
I6817
sI4486
I6818
sI4487
I6820
sI4488
I6821
sI4489
I6822
sI4490
I6823
sI4491
I6824
sI4492
I6827
sI4493
I6828
sI4494
I6829
sI4495
I6830
sI4496
I6834
sI4497
I6840
sI4498
I6841
sI4499
I6843
sI4500
I6846
sI4501
I6847
sI4502
I6849
sI4503
I6850
sI4504
I6851
sI4505
I6852
sI4506
I6857
sI4507
I6870
sI4508
I6874
sI4509
I6876
sI4510
I6879
sI4511
I6881
sI4512
I6884
sI4513
I6885
sI4514
I6886
sI4515
I6887
sI4516
I6888
sI4517
I6889
sI4518
I6890
sI4519
I6892
sI4520
I6893
sI4521
I6894
sI4522
I6895
sI4523
I6896
sI4524
I6898
sI4525
I6899
sI4526
I6900
sI4527
I6920
sI4528
I6921
sI4529
I6922
sI4530
I6923
sI4531
I6924
sI4532
I6925
sI4533
I6926
sI4534
I6927
sI4535
I6928
sI4536
I6929
sI4537
I6930
sI4538
I6931
sI4539
I6932
sI4540
I6933
sI4541
I6934
sI4542
I6935
sI4543
I6936
sI4544
I6937
sI4545
I6938
sI4546
I6939
sI4547
I6940
sI4548
I6941
sI4549
I6942
sI4550
I6943
sI4551
I6944
sI4552
I6945
sI4553
I6946
sI4554
I6947
sI4555
I6948
sI4556
I6949
sI4557
I6950
sI4558
I6951
sI4559
I6952
sI4560
I6953
sI4561
I6954
sI4562
I6955
sI4563
I6956
sI4564
I6957
sI4565
I6960
sI4566
I6962
sI4567
I6965
sI4568
I6966
sI4569
I6967
sI4570
I6968
sI4571
I6969
sI4572
I6970
sI4573
I6973
sI4574
I6976
sI4575
I6977
sI4576
I6978
sI4577
I6979
sI4578
I6980
sI4579
I6981
sI4580
I6982
sI4581
I6983
sI4582
I6984
sI4583
I6985
sI4584
I6987
sI4585
I6989
sI4586
I6990
sI4587
I6991
sI4588
I6992
sI4589
I7000
sI4590
I7001
sI4591
I7002
sI4592
I7003
sI4593
I7008
sI4594
I7014
sI4595
I7015
sI4596
I7016
sI4597
I7025
sI4598
I7027
sI4599
I7028
sI4600
I7029
sI4601
I7030
sI4602
I7034
sI4603
I7042
sI4604
I7051
sI4605
I7052
sI4606
I7055
sI4607
I7056
sI4608
I7062
sI4609
I7066
sI4610
I7067
sI4611
I7068
sI4612
I7069
sI4613
I7070
sI4614
I7072
sI4615
I7073
sI4616
I7074
sI4617
I7075
sI4618
I7076
sI4619
I7077
sI4620
I7078
sI4621
I7079
sI4622
I7080
sI4623
I7084
sI4624
I7088
sI4625
I7096
sI4626
I7099
sI4627
I7100
sI4628
I7101
sI4629
I7102
sI4630
I7103
sI4631
I7104
sI4632
I7105
sI4633
I7106
sI4634
I7107
sI4635
I7108
sI4636
I7109
sI4637
I7110
sI4638
I7111
sI4639
I7112
sI4640
I7113
sI4641
I7114
sI4642
I7115
sI4643
I7116
sI4644
I7117
sI4645
I7118
sI4646
I7119
sI4647
I7120
sI4648
I7121
sI4649
I7122
sI4650
I7123
sI4651
I7124
sI4652
I7125
sI4653
I7126
sI4654
I7127
sI4655
I7128
sI4656
I7129
sI4657
I7130
sI4658
I7131
sI4659
I7132
sI4660
I7133
sI4661
I7134
sI4662
I7135
sI4663
I7137
sI4664
I7138
sI4665
I7139
sI4666
I7142
sI4667
I7145
sI4668
I7146
sI4669
I7147
sI4670
I7148
sI4671
I7149
sI4672
I7150
sI4673
I7152
sI4674
I7153
sI4675
I7154
sI4676
I7156
sI4677
I7158
sI4678
I7159
sI4679
I7161
sI4680
I7162
sI4681
I7163
sI4682
I7164
sI4683
I7165
sI4684
I7166
sI4685
I7167
sI4686
I7168
sI4687
I7169
sI4688
I7170
sI4689
I7171
sI4690
I7172
sI4691
I7173
sI4692
I7175
sI4693
I7179
sI4694
I7180
sI4695
I7181
sI4696
I7182
sI4697
I7186
sI4698
I7189
sI4699
I7190
sI4700
I7191
sI4701
I7192
sI4702
I7193
sI4703
I7194
sI4704
I7195
sI4705
I7206
sI4706
I7209
sI4707
I7210
sI4708
I7232
sI4709
I7234
sI4710
I7235
sI4711
I7236
sI4712
I7237
sI4713
I7238
sI4714
I7243
sI4715
I7244
sI4716
I7246
sI4717
I7247
sI4718
I7248
sI4719
I7249
sI4720
I7250
sI4721
I7251
sI4722
I7252
sI4723
I7253
sI4724
I7254
sI4725
I7255
sI4726
I7256
sI4727
I7257
sI4728
I7258
sI4729
I7259
sI4730
I7260
sI4731
I7266
sI4732
I7270
sI4733
I7275
sI4734
I7277
sI4735
I7279
sI4736
I7280
sI4737
I7281
sI4738
I7282
sI4739
I7283
sI4740
I7284
sI4741
I7285
sI4742
I7286
sI4743
I7287
sI4744
I7288
sI4745
I7289
sI4746
I7290
sI4747
I7291
sI4748
I7292
sI4749
I7293
sI4750
I7294
sI4751
I7295
sI4752
I7296
sI4753
I7297
sI4754
I7298
sI4755
I7299
sI4756
I7300
sI4757
I7301
sI4758
I7302
sI4759
I7303
sI4760
I7304
sI4761
I7305
sI4762
I7306
sI4763
I7307
sI4764
I7308
sI4765
I7309
sI4766
I7310
sI4767
I7311
sI4768
I7312
sI4769
I7313
sI4770
I7314
sI4771
I7315
sI4772
I7316
sI4773
I7326
sI4774
I7328
sI4775
I7329
sI4776
I7330
sI4777
I7331
sI4778
I7336
sI4779
I7337
sI4780
I7338
sI4781
I7339
sI4782
I7340
sI4783
I7341
sI4784
I7342
sI4785
I7343
sI4786
I7344
sI4787
I7345
sI4788
I7346
sI4789
I7347
sI4790
I7348
sI4791
I7349
sI4792
I7350
sI4793
I7351
sI4794
I7352
sI4795
I7353
sI4796
I7357
sI4797
I7358
sI4798
I7359
sI4799
I7360
sI4800
I7362
sI4801
I7363
sI4802
I7364
sI4803
I7365
sI4804
I7366
sI4805
I7367
sI4806
I7370
sI4807
I7372
sI4808
I7373
sI4809
I7374
sI4810
I7375
sI4811
I7381
sI4812
I7388
sI4813
I7414
sI4814
I7428
sI4815
I7429
sI4816
I7430
sI4817
I7431
sI4818
I7432
sI4819
I7433
sI4820
I7434
sI4821
I7435
sI4822
I7436
sI4823
I7437
sI4824
I7438
sI4825
I7439
sI4826
I7440
sI4827
I7441
sI4828
I7443
sI4829
I7452
sI4830
I7457
sI4831
I7458
sI4832
I7459
sI4833
I7463
sI4834
I7464
sI4835
I7465
sI4836
I7466
sI4837
I7467
sI4838
I7468
sI4839
I7469
sI4840
I7470
sI4841
I7471
sI4842
I7472
sI4843
I7473
sI4844
I7474
sI4845
I7475
sI4846
I7476
sI4847
I7477
sI4848
I7478
sI4849
I7479
sI4850
I7480
sI4851
I7481
sI4852
I7482
sI4853
I7483
sI4854
I7484
sI4855
I7485
sI4856
I7486
sI4857
I7487
sI4858
I7488
sI4859
I7489
sI4860
I7490
sI4861
I7491
sI4862
I7492
sI4863
I7493
sI4864
I7494
sI4865
I7495
sI4866
I7506
sI4867
I7507
sI4868
I7508
sI4869
I7509
sI4870
I7510
sI4871
I7516
sI4872
I7517
sI4873
I7519
sI4874
I7520
sI4875
I7521
sI4876
I7522
sI4877
I7523
sI4878
I7524
sI4879
I7525
sI4880
I7526
sI4881
I7527
sI4882
I7528
sI4883
I7529
sI4884
I7530
sI4885
I7531
sI4886
I7532
sI4887
I7533
sI4888
I7536
sI4889
I7537
sI4890
I7538
sI4891
I7540
sI4892
I7541
sI4893
I7542
sI4894
I7543
sI4895
I7544
sI4896
I7545
sI4897
I7546
sI4898
I7547
sI4899
I7548
sI4900
I7549
sI4901
I7550
sI4902
I7551
sI4903
I7553
sI4904
I7554
sI4905
I7555
sI4906
I7556
sI4907
I7562
sI4908
I7568
sI4909
I7569
sI4910
I7570
sI4911
I7571
sI4912
I7605
sI4913
I7606
sI4914
I7607
sI4915
I7608
sI4916
I7609
sI4917
I7610
sI4918
I7611
sI4919
I7612
sI4920
I7613
sI4921
I7614
sI4922
I7615
sI4923
I7616
sI4924
I7617
sI4925
I7618
sI4926
I7619
sI4927
I7620
sI4928
I7621
sI4929
I7622
sI4930
I7623
sI4931
I7624
sI4932
I7626
sI4933
I7628
sI4934
I7633
sI4935
I7634
sI4936
I7636
sI4937
I7639
sI4938
I7641
sI4939
I7644
sI4940
I7645
sI4941
I7646
sI4942
I7647
sI4943
I7648
sI4944
I7649
sI4945
I7650
sI4946
I7652
sI4947
I7653
sI4948
I7654
sI4949
I7655
sI4950
I7656
sI4951
I7657
sI4952
I7658
sI4953
I7659
sI4954
I7660
sI4955
I7661
sI4956
I7662
sI4957
I7663
sI4958
I7664
sI4959
I7665
sI4960
I7666
sI4961
I7667
sI4962
I7668
sI4963
I7669
sI4964
I7670
sI4965
I7671
sI4966
I7672
sI4967
I7673
sI4968
I7674
sI4969
I7677
sI4970
I7680
sI4971
I7686
sI4972
I7690
sI4973
I7697
sI4974
I7698
sI4975
I7699
sI4976
I7700
sI4977
I7701
sI4978
I7702
sI4979
I7703
sI4980
I7704
sI4981
I7705
sI4982
I7706
sI4983
I7707
sI4984
I7708
sI4985
I7709
sI4986
I7710
sI4987
I7712
sI4988
I7713
sI4989
I7715
sI4990
I7716
sI4991
I7718
sI4992
I7721
sI4993
I7722
sI4994
I7724
sI4995
I7726
sI4996
I7727
sI4997
I7728
sI4998
I7731
sI4999
I7734
sI5000
I7736
sI5001
I7739
sI5002
I7749
sI5003
I7750
sI5004
I7751
sI5005
I7763
sI5006
I7781
sI5007
I7784
sI5008
I7785
sI5009
I7787
sI5010
I7788
sI5011
I7789
sI5012
I7790
sI5013
I7791
sI5014
I7792
sI5015
I7793
sI5016
I7794
sI5017
I7795
sI5018
I7796
sI5019
I7797
sI5020
I7798
sI5021
I7799
sI5022
I7800
sI5023
I7801
sI5024
I7802
sI5025
I7803
sI5026
I7804
sI5027
I7805
sI5028
I7813
sI5029
I7814
sI5030
I7815
sI5031
I7821
sI5032
I7825
sI5033
I7826
sI5034
I7828
sI5035
I7834
sI5036
I7835
sI5037
I7836
sI5038
I7837
sI5039
I7838
sI5040
I7839
sI5041
I7840
sI5042
I7841
sI5043
I7842
sI5044
I7843
sI5045
I7844
sI5046
I7845
sI5047
I7846
sI5048
I7847
sI5049
I7848
sI5050
I7849
sI5051
I7850
sI5052
I7851
sI5053
I7852
sI5054
I7853
sI5055
I7866
sI5056
I7877
sI5057
I7878
sI5058
I7879
sI5059
I7880
sI5060
I7881
sI5061
I7882
sI5062
I7883
sI5063
I7884
sI5064
I7885
sI5065
I7886
sI5066
I7887
sI5067
I7888
sI5068
I7889
sI5069
I7891
sI5070
I7892
sI5071
I7893
sI5072
I7894
sI5073
I7895
sI5074
I7896
sI5075
I7899
sI5076
I7901
sI5077
I7902
sI5078
I7903
sI5079
I7904
sI5080
I7905
sI5081
I7907
sI5082
I7916
sI5083
I7918
sI5084
I7921
sI5085
I7931
sI5086
I7932
sI5087
I7962
sI5088
I7963
sI5089
I7964
sI5090
I7965
sI5091
I7967
sI5092
I7969
sI5093
I7970
sI5094
I7971
sI5095
I7972
sI5096
I7973
sI5097
I7974
sI5098
I7975
sI5099
I7976
sI5100
I7977
sI5101
I7978
sI5102
I7979
sI5103
I7980
sI5104
I7981
sI5105
I7982
sI5106
I7983
sI5107
I7984
sI5108
I7985
sI5109
I7989
sI5110
I7995
sI5111
I7997
sI5112
I8001
sI5113
I8007
sI5114
I8008
sI5115
I8010
sI5116
I8011
sI5117
I8012
sI5118
I8013
sI5119
I8014
sI5120
I8015
sI5121
I8016
sI5122
I8017
sI5123
I8018
sI5124
I8019
sI5125
I8020
sI5126
I8021
sI5127
I8022
sI5128
I8023
sI5129
I8024
sI5130
I8025
sI5131
I8026
sI5132
I8027
sI5133
I8028
sI5134
I8029
sI5135
I8030
sI5136
I8031
sI5137
I8032
sI5138
I8035
sI5139
I8038
sI5140
I8046
sI5141
I8048
sI5142
I8058
sI5143
I8059
sI5144
I8060
sI5145
I8061
sI5146
I8062
sI5147
I8063
sI5148
I8064
sI5149
I8065
sI5150
I8066
sI5151
I8067
sI5152
I8068
sI5153
I8069
sI5154
I8070
sI5155
I8071
sI5156
I8072
sI5157
I8073
sI5158
I8074
sI5159
I8075
sI5160
I8077
sI5161
I8084
sI5162
I8087
sI5163
I8088
sI5164
I8090
sI5165
I8096
sI5166
I8101
sI5167
I8102
sI5168
I8105
sI5169
I8106
sI5170
I8109
sI5171
I8110
sI5172
I8111
sI5173
I8112
sI5174
I8113
sI5175
I8120
sI5176
I8140
sI5177
I8144
sI5178
I8145
sI5179
I8146
sI5180
I8147
sI5181
I8149
sI5182
I8150
sI5183
I8151
sI5184
I8152
sI5185
I8153
sI5186
I8154
sI5187
I8155
sI5188
I8156
sI5189
I8157
sI5190
I8158
sI5191
I8159
sI5192
I8160
sI5193
I8161
sI5194
I8162
sI5195
I8163
sI5196
I8164
sI5197
I8165
sI5198
I8166
sI5199
I8167
sI5200
I8171
sI5201
I8180
sI5202
I8181
sI5203
I8187
sI5204
I8190
sI5205
I8192
sI5206
I8193
sI5207
I8194
sI5208
I8195
sI5209
I8196
sI5210
I8197
sI5211
I8198
sI5212
I8199
sI5213
I8200
sI5214
I8201
sI5215
I8202
sI5216
I8203
sI5217
I8204
sI5218
I8205
sI5219
I8206
sI5220
I8207
sI5221
I8208
sI5222
I8209
sI5223
I8210
sI5224
I8211
sI5225
I8216
sI5226
I8220
sI5227
I8226
sI5228
I8228
sI5229
I8236
sI5230
I8238
sI5231
I8239
sI5232
I8240
sI5233
I8241
sI5234
I8242
sI5235
I8243
sI5236
I8244
sI5237
I8245
sI5238
I8246
sI5239
I8247
sI5240
I8248
sI5241
I8249
sI5242
I8250
sI5243
I8251
sI5244
I8252
sI5245
I8253
sI5246
I8254
sI5247
I8255
sI5248
I8256
sI5249
I8257
sI5250
I8258
sI5251
I8259
sI5252
I8261
sI5253
I8262
sI5254
I8263
sI5255
I8264
sI5256
I8265
sI5257
I8266
sI5258
I8273
sI5259
I8274
sI5260
I8276
sI5261
I8277
sI5262
I8278
sI5263
I8279
sI5264
I8282
sI5265
I8283
sI5266
I8284
sI5267
I8285
sI5268
I8292
sI5269
I8293
sI5270
I8318
sI5271
I8327
sI5272
I8329
sI5273
I8330
sI5274
I8331
sI5275
I8332
sI5276
I8333
sI5277
I8334
sI5278
I8335
sI5279
I8336
sI5280
I8337
sI5281
I8338
sI5282
I8339
sI5283
I8340
sI5284
I8341
sI5285
I8342
sI5286
I8343
sI5287
I8344
sI5288
I8345
sI5289
I8346
sI5290
I8347
sI5291
I8348
sI5292
I8349
sI5293
I8350
sI5294
I8351
sI5295
I8353
sI5296
I8354
sI5297
I8362
sI5298
I8374
sI5299
I8375
sI5300
I8376
sI5301
I8377
sI5302
I8378
sI5303
I8379
sI5304
I8380
sI5305
I8381
sI5306
I8382
sI5307
I8383
sI5308
I8384
sI5309
I8385
sI5310
I8386
sI5311
I8387
sI5312
I8388
sI5313
I8389
sI5314
I8390
sI5315
I8396
sI5316
I8397
sI5317
I8398
sI5318
I8404
sI5319
I8406
sI5320
I8411
sI5321
I8416
sI5322
I8419
sI5323
I8420
sI5324
I8421
sI5325
I8422
sI5326
I8423
sI5327
I8424
sI5328
I8425
sI5329
I8426
sI5330
I8427
sI5331
I8428
sI5332
I8429
sI5333
I8430
sI5334
I8431
sI5335
I8432
sI5336
I8433
sI5337
I8434
sI5338
I8435
sI5339
I8436
sI5340
I8437
sI5341
I8438
sI5342
I8439
sI5343
I8440
sI5344
I8441
sI5345
I8442
sI5346
I8443
sI5347
I8444
sI5348
I8445
sI5349
I8446
sI5350
I8447
sI5351
I8457
sI5352
I8458
sI5353
I8459
sI5354
I8462
sI5355
I8463
sI5356
I8464
sI5357
I8466
sI5358
I8472
sI5359
I8497
sI5360
I8507
sI5361
I8508
sI5362
I8509
sI5363
I8510
sI5364
I8511
sI5365
I8512
sI5366
I8513
sI5367
I8514
sI5368
I8515
sI5369
I8516
sI5370
I8517
sI5371
I8518
sI5372
I8519
sI5373
I8520
sI5374
I8521
sI5375
I8522
sI5376
I8523
sI5377
I8524
sI5378
I8525
sI5379
I8526
sI5380
I8527
sI5381
I8528
sI5382
I8529
sI5383
I8530
sI5384
I8531
sI5385
I8532
sI5386
I8551
sI5387
I8555
sI5388
I8556
sI5389
I8557
sI5390
I8558
sI5391
I8559
sI5392
I8560
sI5393
I8561
sI5394
I8562
sI5395
I8563
sI5396
I8564
sI5397
I8565
sI5398
I8566
sI5399
I8567
sI5400
I8568
sI5401
I8569
sI5402
I8571
sI5403
I8573
sI5404
I8576
sI5405
I8577
sI5406
I8578
sI5407
I8580
sI5408
I8584
sI5409
I8585
sI5410
I8586
sI5411
I8591
sI5412
I8595
sI5413
I8596
sI5414
I8597
sI5415
I8600
sI5416
I8601
sI5417
I8602
sI5418
I8603
sI5419
I8604
sI5420
I8605
sI5421
I8606
sI5422
I8607
sI5423
I8608
sI5424
I8609
sI5425
I8610
sI5426
I8611
sI5427
I8612
sI5428
I8613
sI5429
I8614
sI5430
I8615
sI5431
I8616
sI5432
I8617
sI5433
I8618
sI5434
I8619
sI5435
I8620
sI5436
I8621
sI5437
I8622
sI5438
I8623
sI5439
I8624
sI5440
I8625
sI5441
I8626
sI5442
I8627
sI5443
I8628
sI5444
I8629
sI5445
I8637
sI5446
I8638
sI5447
I8643
sI5448
I8647
sI5449
I8651
sI5450
I8654
sI5451
I8659
sI5452
I8688
sI5453
I8689
sI5454
I8690
sI5455
I8691
sI5456
I8692
sI5457
I8693
sI5458
I8694
sI5459
I8695
sI5460
I8696
sI5461
I8697
sI5462
I8698
sI5463
I8699
sI5464
I8700
sI5465
I8701
sI5466
I8702
sI5467
I8703
sI5468
I8704
sI5469
I8705
sI5470
I8706
sI5471
I8707
sI5472
I8708
sI5473
I8709
sI5474
I8710
sI5475
I8711
sI5476
I8712
sI5477
I8713
sI5478
I8716
sI5479
I8722
sI5480
I8723
sI5481
I8734
sI5482
I8735
sI5483
I8736
sI5484
I8737
sI5485
I8738
sI5486
I8739
sI5487
I8740
sI5488
I8741
sI5489
I8742
sI5490
I8743
sI5491
I8744
sI5492
I8745
sI5493
I8746
sI5494
I8747
sI5495
I8748
sI5496
I8749
sI5497
I8756
sI5498
I8757
sI5499
I8758
sI5500
I8765
sI5501
I8766
sI5502
I8781
sI5503
I8782
sI5504
I8783
sI5505
I8784
sI5506
I8785
sI5507
I8786
sI5508
I8787
sI5509
I8788
sI5510
I8789
sI5511
I8790
sI5512
I8791
sI5513
I8792
sI5514
I8793
sI5515
I8794
sI5516
I8795
sI5517
I8796
sI5518
I8797
sI5519
I8798
sI5520
I8799
sI5521
I8800
sI5522
I8801
sI5523
I8802
sI5524
I8803
sI5525
I8804
sI5526
I8805
sI5527
I8806
sI5528
I8807
sI5529
I8808
sI5530
I8809
sI5531
I8810
sI5532
I8818
sI5533
I8819
sI5534
I8823
sI5535
I8824
sI5536
I8830
sI5537
I8831
sI5538
I8834
sI5539
I8839
sI5540
I8840
sI5541
I8845
sI5542
I8855
sI5543
I8858
sI5544
I8870
sI5545
I8871
sI5546
I8872
sI5547
I8873
sI5548
I8874
sI5549
I8875
sI5550
I8876
sI5551
I8877
sI5552
I8878
sI5553
I8879
sI5554
I8880
sI5555
I8881
sI5556
I8882
sI5557
I8883
sI5558
I8884
sI5559
I8885
sI5560
I8886
sI5561
I8887
sI5562
I8888
sI5563
I8889
sI5564
I8890
sI5565
I8891
sI5566
I8892
sI5567
I8894
sI5568
I8901
sI5569
I8902
sI5570
I8903
sI5571
I8907
sI5572
I8910
sI5573
I8912
sI5574
I8916
sI5575
I8917
sI5576
I8918
sI5577
I8919
sI5578
I8920
sI5579
I8921
sI5580
I8922
sI5581
I8923
sI5582
I8924
sI5583
I8925
sI5584
I8926
sI5585
I8927
sI5586
I8928
sI5587
I8929
sI5588
I8930
sI5589
I8931
sI5590
I8933
sI5591
I8935
sI5592
I8936
sI5593
I8937
sI5594
I8940
sI5595
I8943
sI5596
I8944
sI5597
I8964
sI5598
I8965
sI5599
I8966
sI5600
I8967
sI5601
I8968
sI5602
I8969
sI5603
I8970
sI5604
I8971
sI5605
I8972
sI5606
I8973
sI5607
I8974
sI5608
I8975
sI5609
I8976
sI5610
I8977
sI5611
I8978
sI5612
I8979
sI5613
I8980
sI5614
I8981
sI5615
I8982
sI5616
I8983
sI5617
I8984
sI5618
I8985
sI5619
I8986
sI5620
I8987
sI5621
I8988
sI5622
I8989
sI5623
I8990
sI5624
I8991
sI5625
I8992
sI5626
I8993
sI5627
I8999
sI5628
I9000
sI5629
I9001
sI5630
I9002
sI5631
I9004
sI5632
I9005
sI5633
I9007
sI5634
I9008
sI5635
I9009
sI5636
I9013
sI5637
I9014
sI5638
I9020
sI5639
I9021
sI5640
I9039
sI5641
I9050
sI5642
I9051
sI5643
I9052
sI5644
I9053
sI5645
I9054
sI5646
I9055
sI5647
I9056
sI5648
I9057
sI5649
I9058
sI5650
I9059
sI5651
I9060
sI5652
I9061
sI5653
I9062
sI5654
I9063
sI5655
I9064
sI5656
I9065
sI5657
I9066
sI5658
I9067
sI5659
I9068
sI5660
I9069
sI5661
I9070
sI5662
I9071
sI5663
I9081
sI5664
I9089
sI5665
I9096
sI5666
I9097
sI5667
I9098
sI5668
I9099
sI5669
I9100
sI5670
I9101
sI5671
I9102
sI5672
I9103
sI5673
I9104
sI5674
I9105
sI5675
I9106
sI5676
I9107
sI5677
I9108
sI5678
I9109
sI5679
I9110
sI5680
I9111
sI5681
I9113
sI5682
I9114
sI5683
I9115
sI5684
I9118
sI5685
I9120
sI5686
I9123
sI5687
I9125
sI5688
I9130
sI5689
I9133
sI5690
I9138
sI5691
I9139
sI5692
I9141
sI5693
I9142
sI5694
I9144
sI5695
I9145
sI5696
I9147
sI5697
I9150
sI5698
I9151
sI5699
I9152
sI5700
I9153
sI5701
I9154
sI5702
I9155
sI5703
I9156
sI5704
I9157
sI5705
I9158
sI5706
I9160
sI5707
I9161
sI5708
I9162
sI5709
I9163
sI5710
I9164
sI5711
I9165
sI5712
I9166
sI5713
I9167
sI5714
I9168
sI5715
I9169
sI5716
I9170
sI5717
I9171
sI5718
I9172
sI5719
I9173
sI5720
I9174
sI5721
I9175
sI5722
I9176
sI5723
I9177
sI5724
I9178
sI5725
I9179
sI5726
I9180
sI5727
I9181
sI5728
I9182
sI5729
I9183
sI5730
I9184
sI5731
I9188
sI5732
I9196
sI5733
I9202
sI5734
I9206
sI5735
I9214
sI5736
I9222
sI5737
I9231
sI5738
I9232
sI5739
I9233
sI5740
I9234
sI5741
I9235
sI5742
I9236
sI5743
I9237
sI5744
I9238
sI5745
I9239
sI5746
I9240
sI5747
I9241
sI5748
I9242
sI5749
I9243
sI5750
I9244
sI5751
I9245
sI5752
I9246
sI5753
I9247
sI5754
I9248
sI5755
I9249
sI5756
I9250
sI5757
I9251
sI5758
I9253
sI5759
I9254
sI5760
I9266
sI5761
I9268
sI5762
I9276
sI5763
I9277
sI5764
I9278
sI5765
I9279
sI5766
I9280
sI5767
I9281
sI5768
I9282
sI5769
I9283
sI5770
I9284
sI5771
I9285
sI5772
I9286
sI5773
I9287
sI5774
I9288
sI5775
I9289
sI5776
I9290
sI5777
I9291
sI5778
I9292
sI5779
I9293
sI5780
I9294
sI5781
I9295
sI5782
I9296
sI5783
I9298
sI5784
I9303
sI5785
I9304
sI5786
I9318
sI5787
I9321
sI5788
I9322
sI5789
I9323
sI5790
I9325
sI5791
I9329
sI5792
I9330
sI5793
I9331
sI5794
I9332
sI5795
I9333
sI5796
I9334
sI5797
I9335
sI5798
I9336
sI5799
I9337
sI5800
I9338
sI5801
I9340
sI5802
I9341
sI5803
I9342
sI5804
I9343
sI5805
I9349
sI5806
I9350
sI5807
I9351
sI5808
I9352
sI5809
I9353
sI5810
I9354
sI5811
I9356
sI5812
I9357
sI5813
I9358
sI5814
I9360
sI5815
I9361
sI5816
I9362
sI5817
I9363
sI5818
I9364
sI5819
I9365
sI5820
I9372
sI5821
I9375
sI5822
I9376
sI5823
I9377
sI5824
I9378
sI5825
I9379
sI5826
I9380
sI5827
I9382
sI5828
I9391
sI5829
I9400
sI5830
I9401
sI5831
I9407
sI5832
I9411
sI5833
I9412
sI5834
I9413
sI5835
I9414
sI5836
I9415
sI5837
I9416
sI5838
I9417
sI5839
I9418
sI5840
I9419
sI5841
I9420
sI5842
I9421
sI5843
I9422
sI5844
I9423
sI5845
I9424
sI5846
I9425
sI5847
I9426
sI5848
I9427
sI5849
I9428
sI5850
I9429
sI5851
I9430
sI5852
I9433
sI5853
I9437
sI5854
I9445
sI5855
I9446
sI5856
I9447
sI5857
I9451
sI5858
I9455
sI5859
I9456
sI5860
I9457
sI5861
I9458
sI5862
I9459
sI5863
I9460
sI5864
I9461
sI5865
I9462
sI5866
I9463
sI5867
I9464
sI5868
I9465
sI5869
I9466
sI5870
I9467
sI5871
I9468
sI5872
I9469
sI5873
I9470
sI5874
I9472
sI5875
I9473
sI5876
I9474
sI5877
I9475
sI5878
I9477
sI5879
I9478
sI5880
I9480
sI5881
I9493
sI5882
I9503
sI5883
I9508
sI5884
I9510
sI5885
I9511
sI5886
I9512
sI5887
I9513
sI5888
I9514
sI5889
I9515
sI5890
I9516
sI5891
I9517
sI5892
I9518
sI5893
I9519
sI5894
I9520
sI5895
I9521
sI5896
I9522
sI5897
I9523
sI5898
I9524
sI5899
I9525
sI5900
I9526
sI5901
I9533
sI5902
I9534
sI5903
I9537
sI5904
I9538
sI5905
I9539
sI5906
I9540
sI5907
I9541
sI5908
I9543
sI5909
I9547
sI5910
I9548
sI5911
I9552
sI5912
I9553
sI5913
I9554
sI5914
I9555
sI5915
I9556
sI5916
I9557
sI5917
I9558
sI5918
I9559
sI5919
I9560
sI5920
I9567
sI5921
I9571
sI5922
I9572
sI5923
I9573
sI5924
I9584
sI5925
I9592
sI5926
I9593
sI5927
I9594
sI5928
I9595
sI5929
I9596
sI5930
I9597
sI5931
I9598
sI5932
I9599
sI5933
I9600
sI5934
I9601
sI5935
I9602
sI5936
I9603
sI5937
I9604
sI5938
I9605
sI5939
I9606
sI5940
I9607
sI5941
I9608
sI5942
I9609
sI5943
I9610
sI5944
I9611
sI5945
I9612
sI5946
I9627
sI5947
I9635
sI5948
I9636
sI5949
I9637
sI5950
I9638
sI5951
I9639
sI5952
I9640
sI5953
I9641
sI5954
I9642
sI5955
I9643
sI5956
I9644
sI5957
I9645
sI5958
I9646
sI5959
I9647
sI5960
I9648
sI5961
I9649
sI5962
I9650
sI5963
I9651
sI5964
I9652
sI5965
I9653
sI5966
I9654
sI5967
I9655
sI5968
I9658
sI5969
I9659
sI5970
I9660
sI5971
I9663
sI5972
I9685
sI5973
I9689
sI5974
I9690
sI5975
I9691
sI5976
I9692
sI5977
I9693
sI5978
I9694
sI5979
I9695
sI5980
I9696
sI5981
I9697
sI5982
I9698
sI5983
I9699
sI5984
I9700
sI5985
I9701
sI5986
I9702
sI5987
I9703
sI5988
I9704
sI5989
I9705
sI5990
I9706
sI5991
I9707
sI5992
I9708
sI5993
I9712
sI5994
I9713
sI5995
I9714
sI5996
I9716
sI5997
I9718
sI5998
I9719
sI5999
I9720
sI6000
I9722
sI6001
I9723
sI6002
I9725
sI6003
I9728
sI6004
I9730
sI6005
I9731
sI6006
I9732
sI6007
I9733
sI6008
I9734
sI6009
I9735
sI6010
I9736
sI6011
I9737
sI6012
I9738
sI6013
I9739
sI6014
I9740
sI6015
I9741
sI6016
I9746
sI6017
I9751
sI6018
I9752
sI6019
I9759
sI6020
I9774
sI6021
I9775
sI6022
I9776
sI6023
I9777
sI6024
I9778
sI6025
I9779
sI6026
I9780
sI6027
I9781
sI6028
I9782
sI6029
I9783
sI6030
I9784
sI6031
I9785
sI6032
I9786
sI6033
I9787
sI6034
I9788
sI6035
I9789
sI6036
I9790
sI6037
I9815
sI6038
I9816
sI6039
I9817
sI6040
I9818
sI6041
I9819
sI6042
I9820
sI6043
I9821
sI6044
I9822
sI6045
I9823
sI6046
I9824
sI6047
I9825
sI6048
I9826
sI6049
I9827
sI6050
I9828
sI6051
I9829
sI6052
I9830
sI6053
I9831
sI6054
I9832
sI6055
I9833
sI6056
I9834
sI6057
I9836
sI6058
I9837
sI6059
I9838
sI6060
I9839
sI6061
I9841
sI6062
I9842
sI6063
I9849
sI6064
I9867
sI6065
I9868
sI6066
I9869
sI6067
I9870
sI6068
I9871
sI6069
I9872
sI6070
I9873
sI6071
I9874
sI6072
I9875
sI6073
I9876
sI6074
I9877
sI6075
I9878
sI6076
I9879
sI6077
I9880
sI6078
I9881
sI6079
I9882
sI6080
I9883
sI6081
I9884
sI6082
I9885
sI6083
I9886
sI6084
I9887
sI6085
I9889
sI6086
I9891
sI6087
I9892
sI6088
I9894
sI6089
I9895
sI6090
I9897
sI6091
I9898
sI6092
I9899
sI6093
I9900
sI6094
I9901
sI6095
I9902
sI6096
I9903
sI6097
I9906
sI6098
I9909
sI6099
I9910
sI6100
I9911
sI6101
I9912
sI6102
I9913
sI6103
I9918
sI6104
I9919
sI6105
I9920
sI6106
I9921
sI6107
I9922
sI6108
I9932
sI6109
I9942
sI6110
I9948
sI6111
I9949
sI6112
I9953
sI6113
I9954
sI6114
I9955
sI6115
I9956
sI6116
I9957
sI6117
I9958
sI6118
I9959
sI6119
I9960
sI6120
I9961
sI6121
I9962
sI6122
I9963
sI6123
I9964
sI6124
I9965
sI6125
I9966
sI6126
I9967
sI6127
I9968
sI6128
I9969
sI6129
I9971
sI6130
I9972
sI6131
I9974
sI6132
I9975
sI6133
I9994
sI6134
I9996
sI6135
I9997
sI6136
I9998
sI6137
I9999
sI6138
I10000
sI6139
I10001
sI6140
I10002
sI6141
I10003
sI6142
I10004
sI6143
I10005
sI6144
I10006
sI6145
I10007
sI6146
I10009
sI6147
I10011
sI6148
I10012
sI6149
I10013
sI6150
I10014
sI6151
I10017
sI6152
I10018
sI6153
I10023
sI6154
I10032
sI6155
I10040
sI6156
I10044
sI6157
I10045
sI6158
I10046
sI6159
I10047
sI6160
I10048
sI6161
I10049
sI6162
I10050
sI6163
I10051
sI6164
I10052
sI6165
I10053
sI6166
I10054
sI6167
I10055
sI6168
I10056
sI6169
I10057
sI6170
I10058
sI6171
I10059
sI6172
I10060
sI6173
I10061
sI6174
I10062
sI6175
I10063
sI6176
I10064
sI6177
I10065
sI6178
I10066
sI6179
I10067
sI6180
I10068
sI6181
I10069
sI6182
I10070
sI6183
I10071
sI6184
I10072
sI6185
I10073
sI6186
I10074
sI6187
I10075
sI6188
I10077
sI6189
I10078
sI6190
I10079
sI6191
I10080
sI6192
I10081
sI6193
I10082
sI6194
I10093
sI6195
I10094
sI6196
I10095
sI6197
I10096
sI6198
I10100
sI6199
I10101
sI6200
I10102
sI6201
I10103
sI6202
I10104
sI6203
I10122
sI6204
I10128
sI6205
I10129
sI6206
I10134
sI6207
I10135
sI6208
I10136
sI6209
I10137
sI6210
I10138
sI6211
I10139
sI6212
I10140
sI6213
I10141
sI6214
I10142
sI6215
I10143
sI6216
I10144
sI6217
I10145
sI6218
I10146
sI6219
I10147
sI6220
I10148
sI6221
I10149
sI6222
I10151
sI6223
I10153
sI6224
I10174
sI6225
I10177
sI6226
I10178
sI6227
I10179
sI6228
I10180
sI6229
I10181
sI6230
I10182
sI6231
I10183
sI6232
I10184
sI6233
I10185
sI6234
I10186
sI6235
I10187
sI6236
I10190
sI6237
I10191
sI6238
I10192
sI6239
I10193
sI6240
I10194
sI6241
I10196
sI6242
I10197
sI6243
I10220
sI6244
I10222
sI6245
I10225
sI6246
I10226
sI6247
I10227
sI6248
I10228
sI6249
I10229
sI6250
I10230
sI6251
I10231
sI6252
I10232
sI6253
I10233
sI6254
I10234
sI6255
I10235
sI6256
I10236
sI6257
I10237
sI6258
I10238
sI6259
I10239
sI6260
I10240
sI6261
I10241
sI6262
I10242
sI6263
I10243
sI6264
I10244
sI6265
I10245
sI6266
I10246
sI6267
I10247
sI6268
I10249
sI6269
I10252
sI6270
I10253
sI6271
I10254
sI6272
I10255
sI6273
I10256
sI6274
I10257
sI6275
I10265
sI6276
I10267
sI6277
I10270
sI6278
I10271
sI6279
I10274
sI6280
I10277
sI6281
I10284
sI6282
I10285
sI6283
I10287
sI6284
I10289
sI6285
I10301
sI6286
I10306
sI6287
I10307
sI6288
I10308
sI6289
I10314
sI6290
I10315
sI6291
I10316
sI6292
I10317
sI6293
I10318
sI6294
I10319
sI6295
I10320
sI6296
I10321
sI6297
I10322
sI6298
I10323
sI6299
I10324
sI6300
I10325
sI6301
I10326
sI6302
I10327
sI6303
I10328
sI6304
I10357
sI6305
I10358
sI6306
I10359
sI6307
I10360
sI6308
I10361
sI6309
I10362
sI6310
I10363
sI6311
I10364
sI6312
I10365
sI6313
I10366
sI6314
I10367
sI6315
I10371
sI6316
I10372
sI6317
I10373
sI6318
I10400
sI6319
I10402
sI6320
I10404
sI6321
I10405
sI6322
I10406
sI6323
I10407
sI6324
I10408
sI6325
I10409
sI6326
I10410
sI6327
I10411
sI6328
I10412
sI6329
I10413
sI6330
I10414
sI6331
I10415
sI6332
I10416
sI6333
I10417
sI6334
I10418
sI6335
I10419
sI6336
I10420
sI6337
I10421
sI6338
I10422
sI6339
I10423
sI6340
I10424
sI6341
I10425
sI6342
I10426
sI6343
I10427
sI6344
I10429
sI6345
I10442
sI6346
I10455
sI6347
I10456
sI6348
I10457
sI6349
I10458
sI6350
I10474
sI6351
I10475
sI6352
I10477
sI6353
I10480
sI6354
I10489
sI6355
I10490
sI6356
I10493
sI6357
I10494
sI6358
I10495
sI6359
I10496
sI6360
I10497
sI6361
I10498
sI6362
I10499
sI6363
I10500
sI6364
I10501
sI6365
I10502
sI6366
I10503
sI6367
I10504
sI6368
I10505
sI6369
I10533
sI6370
I10537
sI6371
I10538
sI6372
I10539
sI6373
I10540
sI6374
I10541
sI6375
I10542
sI6376
I10543
sI6377
I10544
sI6378
I10545
sI6379
I10546
sI6380
I10547
sI6381
I10548
sI6382
I10556
sI6383
I10579
sI6384
I10584
sI6385
I10586
sI6386
I10587
sI6387
I10588
sI6388
I10589
sI6389
I10590
sI6390
I10591
sI6391
I10592
sI6392
I10593
sI6393
I10594
sI6394
I10595
sI6395
I10596
sI6396
I10597
sI6397
I10598
sI6398
I10599
sI6399
I10600
sI6400
I10601
sI6401
I10602
sI6402
I10603
sI6403
I10604
sI6404
I10605
sI6405
I10606
sI6406
I10607
sI6407
I10609
sI6408
I10614
sI6409
I10617
sI6410
I10621
sI6411
I10626
sI6412
I10639
sI6413
I10658
sI6414
I10674
sI6415
I10675
sI6416
I10676
sI6417
I10677
sI6418
I10678
sI6419
I10679
sI6420
I10680
sI6421
I10681
sI6422
I10682
sI6423
I10683
sI6424
I10684
sI6425
I10685
sI6426
I10711
sI6427
I10714
sI6428
I10717
sI6429
I10718
sI6430
I10719
sI6431
I10720
sI6432
I10721
sI6433
I10722
sI6434
I10723
sI6435
I10724
sI6436
I10725
sI6437
I10726
sI6438
I10759
sI6439
I10761
sI6440
I10765
sI6441
I10766
sI6442
I10767
sI6443
I10768
sI6444
I10769
sI6445
I10770
sI6446
I10771
sI6447
I10772
sI6448
I10773
sI6449
I10774
sI6450
I10775
sI6451
I10776
sI6452
I10777
sI6453
I10778
sI6454
I10779
sI6455
I10780
sI6456
I10781
sI6457
I10782
sI6458
I10783
sI6459
I10784
sI6460
I10785
sI6461
I10786
sI6462
I10787
sI6463
I10789
sI6464
I10793
sI6465
I10794
sI6466
I10798
sI6467
I10800
sI6468
I10801
sI6469
I10802
sI6470
I10803
sI6471
I10842
sI6472
I10844
sI6473
I10854
sI6474
I10855
sI6475
I10856
sI6476
I10857
sI6477
I10858
sI6478
I10859
sI6479
I10860
sI6480
I10861
sI6481
I10862
sI6482
I10863
sI6483
I10864
sI6484
I10867
sI6485
I10870
sI6486
I10872
sI6487
I10894
sI6488
I10898
sI6489
I10899
sI6490
I10900
sI6491
I10901
sI6492
I10902
sI6493
I10903
sI6494
I10904
sI6495
I10905
sI6496
I10906
sI6497
I10910
sI6498
I10912
sI6499
I10920
sI6500
I10937
sI6501
I10941
sI6502
I10942
sI6503
I10944
sI6504
I10947
sI6505
I10948
sI6506
I10949
sI6507
I10950
sI6508
I10951
sI6509
I10952
sI6510
I10953
sI6511
I10954
sI6512
I10955
sI6513
I10956
sI6514
I10957
sI6515
I10958
sI6516
I10959
sI6517
I10960
sI6518
I10961
sI6519
I10962
sI6520
I10963
sI6521
I10964
sI6522
I10965
sI6523
I10966
sI6524
I10968
sI6525
I10969
sI6526
I10972
sI6527
I10976
sI6528
I10977
sI6529
I10979
sI6530
I10980
sI6531
I10981
sI6532
I10982
sI6533
I10984
sI6534
I11005
sI6535
I11029
sI6536
I11030
sI6537
I11033
sI6538
I11034
sI6539
I11035
sI6540
I11036
sI6541
I11037
sI6542
I11038
sI6543
I11039
sI6544
I11040
sI6545
I11041
sI6546
I11042
sI6547
I11043
sI6548
I11044
sI6549
I11045
sI6550
I11052
sI6551
I11053
sI6552
I11076
sI6553
I11078
sI6554
I11079
sI6555
I11080
sI6556
I11081
sI6557
I11082
sI6558
I11083
sI6559
I11084
sI6560
I11087
sI6561
I11091
sI6562
I11098
sI6563
I11099
sI6564
I11108
sI6565
I11119
sI6566
I11120
sI6567
I11123
sI6568
I11124
sI6569
I11127
sI6570
I11128
sI6571
I11129
sI6572
I11130
sI6573
I11131
sI6574
I11132
sI6575
I11133
sI6576
I11134
sI6577
I11135
sI6578
I11136
sI6579
I11137
sI6580
I11138
sI6581
I11139
sI6582
I11140
sI6583
I11141
sI6584
I11142
sI6585
I11143
sI6586
I11144
sI6587
I11145
sI6588
I11146
sI6589
I11148
sI6590
I11149
sI6591
I11151
sI6592
I11153
sI6593
I11154
sI6594
I11155
sI6595
I11156
sI6596
I11161
sI6597
I11164
sI6598
I11169
sI6599
I11182
sI6600
I11185
sI6601
I11195
sI6602
I11213
sI6603
I11214
sI6604
I11215
sI6605
I11216
sI6606
I11217
sI6607
I11218
sI6608
I11219
sI6609
I11220
sI6610
I11221
sI6611
I11222
sI6612
I11223
sI6613
I11236
sI6614
I11239
sI6615
I11248
sI6616
I11253
sI6617
I11259
sI6618
I11260
sI6619
I11261
sI6620
I11262
sI6621
I11264
sI6622
I11267
sI6623
I11276
sI6624
I11289
sI6625
I11305
sI6626
I11307
sI6627
I11308
sI6628
I11309
sI6629
I11310
sI6630
I11311
sI6631
I11312
sI6632
I11313
sI6633
I11314
sI6634
I11315
sI6635
I11316
sI6636
I11317
sI6637
I11318
sI6638
I11319
sI6639
I11320
sI6640
I11321
sI6641
I11322
sI6642
I11323
sI6643
I11324
sI6644
I11325
sI6645
I11326
sI6646
I11328
sI6647
I11329
sI6648
I11335
sI6649
I11336
sI6650
I11337
sI6651
I11339
sI6652
I11343
sI6653
I11345
sI6654
I11367
sI6655
I11388
sI6656
I11389
sI6657
I11392
sI6658
I11393
sI6659
I11394
sI6660
I11395
sI6661
I11396
sI6662
I11397
sI6663
I11398
sI6664
I11399
sI6665
I11400
sI6666
I11401
sI6667
I11403
sI6668
I11423
sI6669
I11433
sI6670
I11437
sI6671
I11438
sI6672
I11439
sI6673
I11440
sI6674
I11441
sI6675
I11444
sI6676
I11456
sI6677
I11457
sI6678
I11468
sI6679
I11469
sI6680
I11482
sI6681
I11495
sI6682
I11497
sI6683
I11498
sI6684
I11499
sI6685
I11500
sI6686
I11501
sI6687
I11502
sI6688
I11503
sI6689
I11504
sI6690
I11505
sI6691
I11508
sI6692
I11509
sI6693
I11511
sI6694
I11513
sI6695
I11515
sI6696
I11516
sI6697
I11517
sI6698
I11518
sI6699
I11519
sI6700
I11520
sI6701
I11521
sI6702
I11530
sI6703
I11531
sI6704
I11546
sI6705
I11573
sI6706
I11574
sI6707
I11575
sI6708
I11576
sI6709
I11577
sI6710
I11578
sI6711
I11579
sI6712
I11580
sI6713
I11581
sI6714
I11582
sI6715
I11596
sI6716
I11604
sI6717
I11606
sI6718
I11613
sI6719
I11616
sI6720
I11617
sI6721
I11631
sI6722
I11633
sI6723
I11640
sI6724
I11648
sI6725
I11649
sI6726
I11671
sI6727
I11673
sI6728
I11675
sI6729
I11679
sI6730
I11680
sI6731
I11681
sI6732
I11682
sI6733
I11683
sI6734
I11684
sI6735
I11687
sI6736
I11692
sI6737
I11695
sI6738
I11696
sI6739
I11697
sI6740
I11698
sI6741
I11699
sI6742
I11700
sI6743
I11707
sI6744
I11710
sI6745
I11711
sI6746
I11715
sI6747
I11737
sI6748
I11738
sI6749
I11745
sI6750
I11751
sI6751
I11752
sI6752
I11753
sI6753
I11754
sI6754
I11755
sI6755
I11756
sI6756
I11757
sI6757
I11758
sI6758
I11759
sI6759
I11762
sI6760
I11784
sI6761
I11785
sI6762
I11787
sI6763
I11795
sI6764
I11797
sI6765
I11803
sI6766
I11811
sI6767
I11830
sI6768
I11861
sI6769
I11862
sI6770
I11863
sI6771
I11864
sI6772
I11870
sI6773
I11872
sI6774
I11874
sI6775
I11875
sI6776
I11876
sI6777
I11877
sI6778
I11878
sI6779
I11879
sI6780
I11880
sI6781
I11881
sI6782
I11884
sI6783
I11896
sI6784
I11928
sI6785
I11932
sI6786
I11933
sI6787
I11934
sI6788
I11935
sI6789
I11936
sI6790
I11937
sI6791
I11938
sI6792
I11941
sI6793
I11967
sI6794
I11969
sI6795
I11970
sI6796
I11971
sI6797
I11977
sI6798
I11989
sI6799
I11990
sI6800
I11991
sI6801
I12003
sI6802
I12012
sI6803
I12042
sI6804
I12043
sI6805
I12044
sI6806
I12045
sI6807
I12046
sI6808
I12049
sI6809
I12052
sI6810
I12053
sI6811
I12054
sI6812
I12055
sI6813
I12056
sI6814
I12057
sI6815
I12058
sI6816
I12059
sI6817
I12061
sI6818
I12062
sI6819
I12085
sI6820
I12092
sI6821
I12112
sI6822
I12113
sI6823
I12114
sI6824
I12115
sI6825
I12116
sI6826
I12117
sI6827
I12127
sI6828
I12128
sI6829
I12142
sI6830
I12150
sI6831
I12172
sI6832
I12175
sI6833
I12208
sI6834
I12222
sI6835
I12223
sI6836
I12228
sI6837
I12229
sI6838
I12232
sI6839
I12233
sI6840
I12234
sI6841
I12235
sI6842
I12236
sI6843
I12237
sI6844
I12238
sI6845
I12239
sI6846
I12262
sI6847
I12266
sI6848
I12288
sI6849
I12292
sI6850
I12293
sI6851
I12294
sI6852
I12295
sI6853
I12296
sI6854
I12297
sI6855
I12300
sI6856
I12305
sI6857
I12330
sI6858
I12332
sI6859
I12335
sI6860
I12343
sI6861
I12346
sI6862
I12347
sI6863
I12348
sI6864
I12349
sI6865
I12351
sI6866
I12355
sI6867
I12356
sI6868
I12402
sI6869
I12410
sI6870
I12412
sI6871
I12413
sI6872
I12414
sI6873
I12415
sI6874
I12416
sI6875
I12418
sI6876
I12419
sI6877
I12421
sI6878
I12472
sI6879
I12473
sI6880
I12474
sI6881
I12475
sI6882
I12476
sI6883
I12477
sI6884
I12489
sI6885
I12512
sI6886
I12514
sI6887
I12524
sI6888
I12540
sI6889
I12542
sI6890
I12544
sI6891
I12545
sI6892
I12568
sI6893
I12584
sI6894
I12592
sI6895
I12593
sI6896
I12595
sI6897
I12598
sI6898
I12599
sI6899
I12630
sI6900
I12652
sI6901
I12653
sI6902
I12654
sI6903
I12655
sI6904
I12659
sI6905
I12660
sI6906
I12661
sI6907
I12665
sI6908
I12667
sI6909
I12668
sI6910
I12677
sI6911
I12692
sI6912
I12720
sI6913
I12724
sI6914
I12725
sI6915
I12726
sI6916
I12728
sI6917
I12745
sI6918
I12747
sI6919
I12772
sI6920
I12773
sI6921
I12775
sI6922
I12776
sI6923
I12778
sI6924
I12802
sI6925
I12832
sI6926
I12833
sI6927
I12834
sI6928
I12835
sI6929
I12836
sI6930
I12839
sI6931
I12840
sI6932
I12843
sI6933
I12846
sI6934
I12848
sI6935
I12849
sI6936
I12850
sI6937
I12851
sI6938
I12853
sI6939
I12871
sI6940
I12877
sI6941
I12882
sI6942
I12891
sI6943
I12892
sI6944
I12905
sI6945
I12906
sI6946
I12907
sI6947
I12910
sI6948
I12911
sI6949
I12940
sI6950
I12950
sI6951
I12951
sI6952
I12952
sI6953
I12954
sI6954
I12955
sI6955
I12957
sI6956
I12958
sI6957
I12982
sI6958
I12985
sI6959
I13007
sI6960
I13013
sI6961
I13014
sI6962
I13015
sI6963
I13016
sI6964
I13017
sI6965
I13018
sI6966
I13020
sI6967
I13027
sI6968
I13028
sI6969
I13030
sI6970
I13031
sI6971
I13032
sI6972
I13035
sI6973
I13050
sI6974
I13051
sI6975
I13053
sI6976
I13087
sI6977
I13091
sI6978
I13122
sI6979
I13129
sI6980
I13132
sI6981
I13157
sI6982
I13184
sI6983
I13185
sI6984
I13195
sI6985
I13196
sI6986
I13199
sI6987
I13203
sI6988
I13208
sI6989
I13210
sI6990
I13212
sI6991
I13213
sI6992
I13215
sI6993
I13216
sI6994
I13217
sI6995
I13228
sI6996
I13232
sI6997
I13303
sI6998
I13309
sI6999
I13375
sI7000
I13380
sI7001
I13381
sI7002
I13382
sI7003
I13385
sI7004
I13388
sI7005
I13396
sI7006
I13402
sI7007
I13403
sI7008
I13404
sI7009
I13448
sI7010
I13472
sI7011
I13479
sI7012
I13485
sI7013
I13488
sI7014
I13514
sI7015
I13515
sI7016
I13532
sI7017
I13540
sI7018
I13555
sI7019
I13556
sI7020
I13557
sI7021
I13558
sI7022
I13560
sI7023
I13561
sI7024
I13562
sI7025
I13563
sI7026
I13564
sI7027
I13566
sI7028
I13567
sI7029
I13569
sI7030
I13571
sI7031
I13572
sI7032
I13574
sI7033
I13575
sI7034
I13597
sI7035
I13608
sI7036
I13610
sI7037
I13625
sI7038
I13634
sI7039
I13635
sI7040
I13650
sI7041
I13659
sI7042
I13670
sI7043
I13691
sI7044
I13693
sI7045
I13738
sI7046
I13739
sI7047
I13740
sI7048
I13741
sI7049
I13742
sI7050
I13745
sI7051
I13749
sI7052
I13750
sI7053
I13756
sI7054
I13760
sI7055
I13800
sI7056
I13805
sI7057
I13816
sI7058
I13819
sI7059
I13820
sI7060
I13840
sI7061
I13848
sI7062
I13851
sI7063
I13855
sI7064
I13865
sI7065
I13887
sI7066
I13903
sI7067
I13904
sI7068
I13905
sI7069
I13915
sI7070
I13916
sI7071
I13917
sI7072
I13918
sI7073
I13919
sI7074
I13920
sI7075
I13921
sI7076
I13922
sI7077
I13925
sI7078
I13940
sI7079
I13951
sI7080
I13954
sI7081
I13967
sI7082
I13972
sI7083
I13976
sI7084
I13977
sI7085
I13981
sI7086
I13985
sI7087
I13986
sI7088
I13989
sI7089
I13991
sI7090
I13993
sI7091
I13994
sI7092
I13995
sI7093
I13996
sI7094
I13997
sI7095
I13999
sI7096
I14000
sI7097
I14001
sI7098
I14002
sI7099
I14003
sI7100
I14004
sI7101
I14005
sI7102
I14006
sI7103
I14015
sI7104
I14016
sI7105
I14017
sI7106
I14018
sI7107
I14020
sI7108
I14021
sI7109
I14022
sI7110
I14030
sI7111
I14034
sI7112
I14040
sI7113
I14081
sI7114
I14087
sI7115
I14090
sI7116
I14095
sI7117
I14096
sI7118
I14097
sI7119
I14098
sI7120
I14099
sI7121
I14102
sI7122
I14104
sI7123
I14106
sI7124
I14124
sI7125
I14125
sI7126
I14129
sI7127
I14131
sI7128
I14133
sI7129
I14135
sI7130
I14136
sI7131
I14138
sI7132
I14139
sI7133
I14146
sI7134
I14151
sI7135
I14152
sI7136
I14153
sI7137
I14154
sI7138
I14155
sI7139
I14156
sI7140
I14157
sI7141
I14158
sI7142
I14159
sI7143
I14160
sI7144
I14161
sI7145
I14162
sI7146
I14163
sI7147
I14164
sI7148
I14165
sI7149
I14166
sI7150
I14168
sI7151
I14170
sI7152
I14171
sI7153
I14172
sI7154
I14173
sI7155
I14174
sI7156
I14175
sI7157
I14176
sI7158
I14177
sI7159
I14178
sI7160
I14179
sI7161
I14180
sI7162
I14181
sI7163
I14182
sI7164
I14183
sI7165
I14184
sI7166
I14185
sI7167
I14186
sI7168
I14187
sI7169
I14188
sI7170
I14189
sI7171
I14190
sI7172
I14191
sI7173
I14192
sI7174
I14193
sI7175
I14194
sI7176
I14195
sI7177
I14196
sI7178
I14197
sI7179
I14198
sI7180
I14199
sI7181
I14200
sI7182
I14201
sI7183
I14202
sI7184
I14203
sI7185
I14209
sI7186
I14211
sI7187
I14212
sI7188
I14213
sI7189
I14215
sI7190
I14219
sI7191
I14220
sI7192
I14248
sI7193
I14261
sI7194
I14264
sI7195
I14271
sI7196
I14272
sI7197
I14273
sI7198
I14274
sI7199
I14275
sI7200
I14276
sI7201
I14277
sI7202
I14278
sI7203
I14279
sI7204
I14280
sI7205
I14281
sI7206
I14286
sI7207
I14292
sI7208
I14293
sI7209
I14304
sI7210
I14305
sI7211
I14306
sI7212
I14308
sI7213
I14309
sI7214
I14310
sI7215
I14311
sI7216
I14313
sI7217
I14314
sI7218
I14315
sI7219
I14316
sI7220
I14317
sI7221
I14319
sI7222
I14322
sI7223
I14323
sI7224
I14325
sI7225
I14326
sI7226
I14327
sI7227
I14328
sI7228
I14329
sI7229
I14330
sI7230
I14331
sI7231
I14332
sI7232
I14334
sI7233
I14335
sI7234
I14336
sI7235
I14337
sI7236
I14338
sI7237
I14339
sI7238
I14340
sI7239
I14341
sI7240
I14342
sI7241
I14343
sI7242
I14344
sI7243
I14345
sI7244
I14346
sI7245
I14347
sI7246
I14348
sI7247
I14349
sI7248
I14350
sI7249
I14353
sI7250
I14357
sI7251
I14358
sI7252
I14366
sI7253
I14370
sI7254
I14375
sI7255
I14377
sI7256
I14382
sI7257
I14383
sI7258
I14384
sI7259
I14385
sI7260
I14386
sI7261
I14387
sI7262
I14388
sI7263
I14389
sI7264
I14390
sI7265
I14391
sI7266
I14392
sI7267
I14400
sI7268
I14404
sI7269
I14431
sI7270
I14439
sI7271
I14440
sI7272
I14441
sI7273
I14447
sI7274
I14452
sI7275
I14453
sI7276
I14454
sI7277
I14455
sI7278
I14456
sI7279
I14457
sI7280
I14458
sI7281
I14459
sI7282
I14469
sI7283
I14472
sI7284
I14473
sI7285
I14477
sI7286
I14479
sI7287
I14481
sI7288
I14482
sI7289
I14483
sI7290
I14484
sI7291
I14485
sI7292
I14486
sI7293
I14487
sI7294
I14488
sI7295
I14489
sI7296
I14490
sI7297
I14491
sI7298
I14492
sI7299
I14493
sI7300
I14494
sI7301
I14495
sI7302
I14496
sI7303
I14497
sI7304
I14498
sI7305
I14499
sI7306
I14500
sI7307
I14501
sI7308
I14502
sI7309
I14503
sI7310
I14504
sI7311
I14507
sI7312
I14508
sI7313
I14509
sI7314
I14510
sI7315
I14511
sI7316
I14512
sI7317
I14515
sI7318
I14521
sI7319
I14522
sI7320
I14523
sI7321
I14524
sI7322
I14525
sI7323
I14526
sI7324
I14528
sI7325
I14545
sI7326
I14558
sI7327
I14559
sI7328
I14563
sI7329
I14564
sI7330
I14569
sI7331
I14570
sI7332
I14571
sI7333
I14572
sI7334
I14573
sI7335
I14574
sI7336
I14575
sI7337
I14576
sI7338
I14577
sI7339
I14578
sI7340
I14579
sI7341
I14580
sI7342
I14583
sI7343
I14604
sI7344
I14606
sI7345
I14607
sI7346
I14608
sI7347
I14609
sI7348
I14610
sI7349
I14611
sI7350
I14612
sI7351
I14613
sI7352
I14614
sI7353
I14617
sI7354
I14618
sI7355
I14619
sI7356
I14620
sI7357
I14621
sI7358
I14622
sI7359
I14623
sI7360
I14624
sI7361
I14625
sI7362
I14626
sI7363
I14627
sI7364
I14628
sI7365
I14629
sI7366
I14630
sI7367
I14631
sI7368
I14632
sI7369
I14633
sI7370
I14634
sI7371
I14635
sI7372
I14636
sI7373
I14637
sI7374
I14638
sI7375
I14639
sI7376
I14640
sI7377
I14645
sI7378
I14647
sI7379
I14650
sI7380
I14654
sI7381
I14655
sI7382
I14658
sI7383
I14659
sI7384
I14660
sI7385
I14661
sI7386
I14662
sI7387
I14663
sI7388
I14665
sI7389
I14666
sI7390
I14667
sI7391
I14668
sI7392
I14669
sI7393
I14670
sI7394
I14671
sI7395
I14672
sI7396
I14673
sI7397
I14674
sI7398
I14675
sI7399
I14676
sI7400
I14677
sI7401
I14678
sI7402
I14679
sI7403
I14680
sI7404
I14681
sI7405
I14682
sI7406
I14683
sI7407
I14684
sI7408
I14685
sI7409
I14687
sI7410
I14690
sI7411
I14695
sI7412
I14700
sI7413
I14701
sI7414
I14702
sI7415
I14703
sI7416
I14704
sI7417
I14705
sI7418
I14706
sI7419
I14707
sI7420
I14708
sI7421
I14709
sI7422
I14712
sI7423
I14714
sI7424
I14718
sI7425
I14723
sI7426
I14731
sI7427
I14737
sI7428
I14738
sI7429
I14749
sI7430
I14750
sI7431
I14751
sI7432
I14752
sI7433
I14753
sI7434
I14754
sI7435
I14755
sI7436
I14757
sI7437
I14758
sI7438
I14759
sI7439
I14762
sI7440
I14767
sI7441
I14768
sI7442
I14771
sI7443
I14773
sI7444
I14776
sI7445
I14777
sI7446
I14778
sI7447
I14779
sI7448
I14780
sI7449
I14781
sI7450
I14782
sI7451
I14783
sI7452
I14784
sI7453
I14785
sI7454
I14786
sI7455
I14787
sI7456
I14789
sI7457
I14790
sI7458
I14791
sI7459
I14792
sI7460
I14793
sI7461
I14794
sI7462
I14795
sI7463
I14796
sI7464
I14797
sI7465
I14798
sI7466
I14799
sI7467
I14800
sI7468
I14807
sI7469
I14808
sI7470
I14809
sI7471
I14810
sI7472
I14811
sI7473
I14812
sI7474
I14813
sI7475
I14814
sI7476
I14815
sI7477
I14816
sI7478
I14817
sI7479
I14818
sI7480
I14819
sI7481
I14821
sI7482
I14826
sI7483
I14833
sI7484
I14835
sI7485
I14836
sI7486
I14837
sI7487
I14838
sI7488
I14839
sI7489
I14840
sI7490
I14842
sI7491
I14843
sI7492
I14844
sI7493
I14845
sI7494
I14846
sI7495
I14847
sI7496
I14850
sI7497
I14876
sI7498
I14881
sI7499
I14882
sI7500
I14883
sI7501
I14884
sI7502
I14888
sI7503
I14895
sI7504
I14898
sI7505
I14904
sI7506
I14910
sI7507
I14911
sI7508
I14912
sI7509
I14916
sI7510
I14922
sI7511
I14928
sI7512
I14929
sI7513
I14930
sI7514
I14931
sI7515
I14932
sI7516
I14933
sI7517
I14934
sI7518
I14937
sI7519
I14939
sI7520
I14944
sI7521
I14946
sI7522
I14947
sI7523
I14948
sI7524
I14949
sI7525
I14950
sI7526
I14951
sI7527
I14952
sI7528
I14953
sI7529
I14954
sI7530
I14955
sI7531
I14956
sI7532
I14957
sI7533
I14958
sI7534
I14959
sI7535
I14960
sI7536
I14961
sI7537
I14962
sI7538
I14963
sI7539
I14966
sI7540
I14967
sI7541
I14970
sI7542
I14971
sI7543
I14973
sI7544
I14974
sI7545
I14986
sI7546
I14987
sI7547
I14988
sI7548
I14989
sI7549
I14990
sI7550
I14991
sI7551
I14992
sI7552
I14993
sI7553
I14994
sI7554
I14995
sI7555
I14996
sI7556
I14998
sI7557
I15002
sI7558
I15005
sI7559
I15006
sI7560
I15008
sI7561
I15009
sI7562
I15010
sI7563
I15011
sI7564
I15012
sI7565
I15013
sI7566
I15014
sI7567
I15015
sI7568
I15016
sI7569
I15017
sI7570
I15018
sI7571
I15048
sI7572
I15049
sI7573
I15062
sI7574
I15068
sI7575
I15082
sI7576
I15083
sI7577
I15092
sI7578
I15094
sI7579
I15108
sI7580
I15109
sI7581
I15110
sI7582
I15111
sI7583
I15112
sI7584
I15113
sI7585
I15114
sI7586
I15115
sI7587
I15116
sI7588
I15118
sI7589
I15119
sI7590
I15124
sI7591
I15125
sI7592
I15126
sI7593
I15127
sI7594
I15128
sI7595
I15129
sI7596
I15131
sI7597
I15132
sI7598
I15133
sI7599
I15135
sI7600
I15136
sI7601
I15137
sI7602
I15145
sI7603
I15157
sI7604
I15164
sI7605
I15165
sI7606
I15166
sI7607
I15167
sI7608
I15168
sI7609
I15169
sI7610
I15170
sI7611
I15172
sI7612
I15175
sI7613
I15176
sI7614
I15179
sI7615
I15185
sI7616
I15186
sI7617
I15187
sI7618
I15188
sI7619
I15190
sI7620
I15191
sI7621
I15192
sI7622
I15194
sI7623
I15195
sI7624
I15196
sI7625
I15197
sI7626
I15198
sI7627
I15218
sI7628
I15230
sI7629
I15235
sI7630
I15248
sI7631
I15253
sI7632
I15263
sI7633
I15286
sI7634
I15287
sI7635
I15288
sI7636
I15289
sI7637
I15290
sI7638
I15291
sI7639
I15292
sI7640
I15293
sI7641
I15294
sI7642
I15300
sI7643
I15302
sI7644
I15308
sI7645
I15309
sI7646
I15315
sI7647
I15318
sI7648
I15319
sI7649
I15320
sI7650
I15322
sI7651
I15330
sI7652
I15332
sI7653
I15337
sI7654
I15341
sI7655
I15343
sI7656
I15345
sI7657
I15346
sI7658
I15347
sI7659
I15348
sI7660
I15349
sI7661
I15350
sI7662
I15355
sI7663
I15358
sI7664
I15359
sI7665
I15361
sI7666
I15365
sI7667
I15368
sI7668
I15369
sI7669
I15370
sI7670
I15372
sI7671
I15373
sI7672
I15374
sI7673
I15375
sI7674
I15376
sI7675
I15377
sI7676
I15378
sI7677
I15379
sI7678
I15380
sI7679
I15397
sI7680
I15402
sI7681
I15428
sI7682
I15430
sI7683
I15432
sI7684
I15435
sI7685
I15441
sI7686
I15466
sI7687
I15467
sI7688
I15468
sI7689
I15469
sI7690
I15470
sI7691
I15471
sI7692
I15475
sI7693
I15483
sI7694
I15492
sI7695
I15497
sI7696
I15505
sI7697
I15517
sI7698
I15518
sI7699
I15525
sI7700
I15526
sI7701
I15532
sI7702
I15536
sI7703
I15538
sI7704
I15540
sI7705
I15541
sI7706
I15542
sI7707
I15543
sI7708
I15544
sI7709
I15545
sI7710
I15546
sI7711
I15547
sI7712
I15548
sI7713
I15549
sI7714
I15550
sI7715
I15551
sI7716
I15552
sI7717
I15556
sI7718
I15574
sI7719
I15587
sI7720
I15597
sI7721
I15647
sI7722
I15648
sI7723
I15649
sI7724
I15650
sI7725
I15651
sI7726
I15652
sI7727
I15653
sI7728
I15654
sI7729
I15655
sI7730
I15656
sI7731
I15657
sI7732
I15660
sI7733
I15661
sI7734
I15662
sI7735
I15663
sI7736
I15664
sI7737
I15665
sI7738
I15666
sI7739
I15667
sI7740
I15668
sI7741
I15669
sI7742
I15670
sI7743
I15671
sI7744
I15672
sI7745
I15673
sI7746
I15674
sI7747
I15675
sI7748
I15676
sI7749
I15677
sI7750
I15678
sI7751
I15679
sI7752
I15680
sI7753
I15681
sI7754
I15682
sI7755
I15683
sI7756
I15684
sI7757
I15685
sI7758
I15686
sI7759
I15687
sI7760
I15688
sI7761
I15689
sI7762
I15690
sI7763
I15691
sI7764
I15692
sI7765
I15693
sI7766
I15694
sI7767
I15700
sI7768
I15701
sI7769
I15702
sI7770
I15703
sI7771
I15704
sI7772
I15705
sI7773
I15706
sI7774
I15707
sI7775
I15715
sI7776
I15716
sI7777
I15717
sI7778
I15718
sI7779
I15719
sI7780
I15721
sI7781
I15722
sI7782
I15723
sI7783
I15725
sI7784
I15731
sI7785
I15805
sI7786
I15807
sI7787
I15808
sI7788
I15829
sI7789
I15830
sI7790
I15831
sI7791
I15832
sI7792
I15833
sI7793
I15834
sI7794
I15835
sI7795
I15836
sI7796
I15837
sI7797
I15838
sI7798
I15839
sI7799
I15846
sI7800
I15847
sI7801
I15848
sI7802
I15849
sI7803
I15850
sI7804
I15851
sI7805
I15852
sI7806
I15853
sI7807
I15854
sI7808
I15855
sI7809
I15856
sI7810
I15857
sI7811
I15859
sI7812
I15861
sI7813
I15863
sI7814
I15864
sI7815
I15865
sI7816
I15866
sI7817
I15867
sI7818
I15877
sI7819
I16021
sI7820
I16076
sI7821
I16110
sI7822
I16179
s.